ARM GAS  C:\Users\hide\AppData\Local\Temp\ccCzzKXr.s 			page 1


   1              		.cpu cortex-m4
   2              		.arch armv7e-m
   3              		.fpu fpv4-sp-d16
   4              		.eabi_attribute 27, 1
   5              		.eabi_attribute 28, 1
   6              		.eabi_attribute 20, 1
   7              		.eabi_attribute 21, 1
   8              		.eabi_attribute 23, 3
   9              		.eabi_attribute 24, 1
  10              		.eabi_attribute 25, 1
  11              		.eabi_attribute 26, 1
  12              		.eabi_attribute 30, 1
  13              		.eabi_attribute 34, 1
  14              		.eabi_attribute 18, 4
  15              		.file	"as5047p_hal.c"
  16              		.text
  17              	.Ltext0:
  18              		.cfi_sections	.debug_frame
  19              		.section	.text.AS5047P_SelectSPIAndGPIO,"ax",%progbits
  20              		.align	1
  21              		.syntax unified
  22              		.thumb
  23              		.thumb_func
  25              	AS5047P_SelectSPIAndGPIO:
  26              	.LVL0:
  27              	.LFB255:
  28              		.file 1 "Drivers/AS5047P/Src/as5047p_hal.c"
   1:Drivers/AS5047P/Src/as5047p_hal.c **** /************************************************************************************
   2:Drivers/AS5047P/Src/as5047p_hal.c **** *
   3:Drivers/AS5047P/Src/as5047p_hal.c **** *	File:		as5047p_hal.c
   4:Drivers/AS5047P/Src/as5047p_hal.c **** *	Author:		Krzysztof Sawicki
   5:Drivers/AS5047P/Src/as5047p_hal.c **** *	Brief:		Source file containing prototypes of low level functions
   6:Drivers/AS5047P/Src/as5047p_hal.c **** *			used by AS5047P driver. It utilizes hardware abstracted
   7:Drivers/AS5047P/Src/as5047p_hal.c **** *			layer idea.
   8:Drivers/AS5047P/Src/as5047p_hal.c **** *
   9:Drivers/AS5047P/Src/as5047p_hal.c **** *	Description:
  10:Drivers/AS5047P/Src/as5047p_hal.c **** *	To make AS5047P driver working, all functions with annotation:
  11:Drivers/AS5047P/Src/as5047p_hal.c **** *
  12:Drivers/AS5047P/Src/as5047p_hal.c **** * 		!!!!!!!!!!!!!!!!!!!!!!!!!!!!!!!!!!!!!!!!!!!!!!!
  13:Drivers/AS5047P/Src/as5047p_hal.c **** *	 	!!! !!! MUST BE IMPLEMENTED BY THE USER !!! !!!
  14:Drivers/AS5047P/Src/as5047p_hal.c **** *	 	!!!!!!!!!!!!!!!!!!!!!!!!!!!!!!!!!!!!!!!!!!!!!!!
  15:Drivers/AS5047P/Src/as5047p_hal.c **** *
  16:Drivers/AS5047P/Src/as5047p_hal.c **** *	has to be implemented. They are mostly related to platform specific SPI
  17:Drivers/AS5047P/Src/as5047p_hal.c **** *	communication and CS signals handling.
  18:Drivers/AS5047P/Src/as5047p_hal.c **** *
  19:Drivers/AS5047P/Src/as5047p_hal.c **** *	If your CPU is fast (let's say 180-200Mhz and more, you also should take care
  20:Drivers/AS5047P/Src/as5047p_hal.c **** *	of annotations:
  21:Drivers/AS5047P/Src/as5047p_hal.c **** *
  22:Drivers/AS5047P/Src/as5047p_hal.c **** *	 	!!! !!! CAUTION CAUTION CAUTION  !!! !!!
  23:Drivers/AS5047P/Src/as5047p_hal.c **** *
  24:Drivers/AS5047P/Src/as5047p_hal.c **** *	 which relates to SPI timing.
  25:Drivers/AS5047P/Src/as5047p_hal.c **** *
  26:Drivers/AS5047P/Src/as5047p_hal.c **** *************************************************************************************/
  27:Drivers/AS5047P/Src/as5047p_hal.c **** 
  28:Drivers/AS5047P/Src/as5047p_hal.c **** #include "as5047p_hal.h"
  29:Drivers/AS5047P/Src/as5047p_hal.c **** 
  30:Drivers/AS5047P/Src/as5047p_hal.c **** /************************************************************************************
ARM GAS  C:\Users\hide\AppData\Local\Temp\ccCzzKXr.s 			page 2


  31:Drivers/AS5047P/Src/as5047p_hal.c ****  * 		!!!!!!!!!!!!!!!!!!!!!!!!!!!!!!!!!!!!!!!!!!!!!!!
  32:Drivers/AS5047P/Src/as5047p_hal.c ****  *	 	!!! !!! MUST BE IMPLEMENTED BY THE USER !!! !!!
  33:Drivers/AS5047P/Src/as5047p_hal.c ****  *	 	!!!!!!!!!!!!!!!!!!!!!!!!!!!!!!!!!!!!!!!!!!!!!!!
  34:Drivers/AS5047P/Src/as5047p_hal.c ****  *
  35:Drivers/AS5047P/Src/as5047p_hal.c ****  *
  36:Drivers/AS5047P/Src/as5047p_hal.c ****  * 	Description:
  37:Drivers/AS5047P/Src/as5047p_hal.c ****  *	Here private members, #defines and #includes for handling GPIO for CS and SPI
  38:Drivers/AS5047P/Src/as5047p_hal.c ****  *	port should be kept.
  39:Drivers/AS5047P/Src/as5047p_hal.c ****  *
  40:Drivers/AS5047P/Src/as5047p_hal.c ****  ************************************************************************************/
  41:Drivers/AS5047P/Src/as5047p_hal.c **** #include "main.h"
  42:Drivers/AS5047P/Src/as5047p_hal.c **** #include "spi.h"
  43:Drivers/AS5047P/Src/as5047p_hal.c **** #include <stdio.h>
  44:Drivers/AS5047P/Src/as5047p_hal.c **** 
  45:Drivers/AS5047P/Src/as5047p_hal.c **** extern SPI_HandleTypeDef hspi1;
  46:Drivers/AS5047P/Src/as5047p_hal.c **** 
  47:Drivers/AS5047P/Src/as5047p_hal.c **** static SPI_HandleTypeDef *handlerSPI;
  48:Drivers/AS5047P/Src/as5047p_hal.c **** static GPIO_TypeDef *gpioPort;
  49:Drivers/AS5047P/Src/as5047p_hal.c **** static uint16_t gpioPin;
  50:Drivers/AS5047P/Src/as5047p_hal.c **** 
  51:Drivers/AS5047P/Src/as5047p_hal.c **** //Some includes
  52:Drivers/AS5047P/Src/as5047p_hal.c **** //Some static variables
  53:Drivers/AS5047P/Src/as5047p_hal.c **** 
  54:Drivers/AS5047P/Src/as5047p_hal.c **** /************************************************************************************
  55:Drivers/AS5047P/Src/as5047p_hal.c ****  * 		!!!!!!!!!!!!!!!!!!!!!!!!!!!!!!!!!!!!!!!!!!!!!!!
  56:Drivers/AS5047P/Src/as5047p_hal.c ****  *	 	!!! !!! MUST BE IMPLEMENTED BY THE USER !!! !!!
  57:Drivers/AS5047P/Src/as5047p_hal.c ****  *	 	!!!!!!!!!!!!!!!!!!!!!!!!!!!!!!!!!!!!!!!!!!!!!!!
  58:Drivers/AS5047P/Src/as5047p_hal.c ****  *
  59:Drivers/AS5047P/Src/as5047p_hal.c ****  * 	Function: 	AS5047P_HAL_Delay_ms(ms)
  60:Drivers/AS5047P/Src/as5047p_hal.c ****  * 	Access:		public
  61:Drivers/AS5047P/Src/as5047p_hal.c ****  * 	Inputs:
  62:Drivers/AS5047P/Src/as5047p_hal.c ****  * 		ms:	Delay in ms.
  63:Drivers/AS5047P/Src/as5047p_hal.c ****  *
  64:Drivers/AS5047P/Src/as5047p_hal.c ****  * 	Returns:
  65:Drivers/AS5047P/Src/as5047p_hal.c ****  * 		Nothing.
  66:Drivers/AS5047P/Src/as5047p_hal.c ****  *
  67:Drivers/AS5047P/Src/as5047p_hal.c ****  * 	Description:
  68:Drivers/AS5047P/Src/as5047p_hal.c ****  * 	Function stalls program execution for 'ms' miliseconds.
  69:Drivers/AS5047P/Src/as5047p_hal.c ****  *
  70:Drivers/AS5047P/Src/as5047p_hal.c ****  ************************************************************************************/
  71:Drivers/AS5047P/Src/as5047p_hal.c **** void AS5047P_HAL_Delay_ms(uint32_t ms)
  72:Drivers/AS5047P/Src/as5047p_hal.c **** {
  73:Drivers/AS5047P/Src/as5047p_hal.c **** 	//Delay in miliseconds
  74:Drivers/AS5047P/Src/as5047p_hal.c **** 	HAL_Delay(ms);
  75:Drivers/AS5047P/Src/as5047p_hal.c **** 
  76:Drivers/AS5047P/Src/as5047p_hal.c **** 
  77:Drivers/AS5047P/Src/as5047p_hal.c **** 	//Remove this line after implementation!
  78:Drivers/AS5047P/Src/as5047p_hal.c **** //#error "You must implement AS5047P_HAL_Delay_ms()"
  79:Drivers/AS5047P/Src/as5047p_hal.c **** }
  80:Drivers/AS5047P/Src/as5047p_hal.c **** 
  81:Drivers/AS5047P/Src/as5047p_hal.c **** /************************************************************************************
  82:Drivers/AS5047P/Src/as5047p_hal.c ****  * 		!!!!!!!!!!!!!!!!!!!!!!!!!!!!!!!!!!!!!!!!!!!!!!!
  83:Drivers/AS5047P/Src/as5047p_hal.c ****  *	 	!!! !!! MUST BE IMPLEMENTED BY THE USER !!! !!!
  84:Drivers/AS5047P/Src/as5047p_hal.c ****  *	 	!!!!!!!!!!!!!!!!!!!!!!!!!!!!!!!!!!!!!!!!!!!!!!!
  85:Drivers/AS5047P/Src/as5047p_hal.c ****  *
  86:Drivers/AS5047P/Src/as5047p_hal.c ****  * 	Function: 	AS5047P_HAL_SPI_TxRx(pTx, pRx)
  87:Drivers/AS5047P/Src/as5047p_hal.c ****  * 	Access:		private
ARM GAS  C:\Users\hide\AppData\Local\Temp\ccCzzKXr.s 			page 3


  88:Drivers/AS5047P/Src/as5047p_hal.c ****  * 	Inputs:
  89:Drivers/AS5047P/Src/as5047p_hal.c ****  *		pTx: Pointer to two-byte field containing data to put on SPI MOSI line.
  90:Drivers/AS5047P/Src/as5047p_hal.c ****  *		pRx: Pointer to two-byte field to be filled with SPI MISO line data.
  91:Drivers/AS5047P/Src/as5047p_hal.c ****  *
  92:Drivers/AS5047P/Src/as5047p_hal.c ****  * 	Returns:
  93:Drivers/AS5047P/Src/as5047p_hal.c ****  *		-1 : Execution with errors.
  94:Drivers/AS5047P/Src/as5047p_hal.c ****  *		 0 : Success.
  95:Drivers/AS5047P/Src/as5047p_hal.c ****  *
  96:Drivers/AS5047P/Src/as5047p_hal.c ****  * 	Description:
  97:Drivers/AS5047P/Src/as5047p_hal.c ****  * 	Function is used for full-duplex SPI transactions. Function is of blocking
  98:Drivers/AS5047P/Src/as5047p_hal.c ****  * 	type.
  99:Drivers/AS5047P/Src/as5047p_hal.c ****  *
 100:Drivers/AS5047P/Src/as5047p_hal.c ****  * 	Communication parameters used by AS5047P are:
 101:Drivers/AS5047P/Src/as5047p_hal.c ****  *
 102:Drivers/AS5047P/Src/as5047p_hal.c ****  * 	- SPI MODE 1 (CPOL = 0, CPHA = 1)
 103:Drivers/AS5047P/Src/as5047p_hal.c ****  * 	- SCK max. 10Mhz (11.25Mhz worked also fine but not recommended)
 104:Drivers/AS5047P/Src/as5047p_hal.c ****  * 	- Data size: 16 bits
 105:Drivers/AS5047P/Src/as5047p_hal.c ****  * 	- Bits order: MSB first
 106:Drivers/AS5047P/Src/as5047p_hal.c ****  *
 107:Drivers/AS5047P/Src/as5047p_hal.c ****  ************************************************************************************/
 108:Drivers/AS5047P/Src/as5047p_hal.c **** static uint8_t AS5047P_HAL_SPI_TxRx(uint16_t * pTx, uint16_t * pRx)
 109:Drivers/AS5047P/Src/as5047p_hal.c **** {
 110:Drivers/AS5047P/Src/as5047p_hal.c **** 
 111:Drivers/AS5047P/Src/as5047p_hal.c **** // SPI transmit/receive
 112:Drivers/AS5047P/Src/as5047p_hal.c **** 	HAL_StatusTypeDef spiStatus;
 113:Drivers/AS5047P/Src/as5047p_hal.c **** 	spiStatus = HAL_SPI_TransmitReceive(handlerSPI, (uint8_t *)pTx, (uint8_t *)pRx, 1, HAL_MAX_DELAY);
 114:Drivers/AS5047P/Src/as5047p_hal.c **** 
 115:Drivers/AS5047P/Src/as5047p_hal.c **** 	if(spiStatus != HAL_OK){
 116:Drivers/AS5047P/Src/as5047p_hal.c **** 		return -1;
 117:Drivers/AS5047P/Src/as5047p_hal.c **** 	}
 118:Drivers/AS5047P/Src/as5047p_hal.c **** 
 119:Drivers/AS5047P/Src/as5047p_hal.c **** //  if( error )
 120:Drivers/AS5047P/Src/as5047p_hal.c **** //  {
 121:Drivers/AS5047P/Src/as5047p_hal.c **** //      return -1;
 122:Drivers/AS5047P/Src/as5047p_hal.c **** //  }
 123:Drivers/AS5047P/Src/as5047p_hal.c **** 
 124:Drivers/AS5047P/Src/as5047p_hal.c ****   return 0;
 125:Drivers/AS5047P/Src/as5047p_hal.c **** 
 126:Drivers/AS5047P/Src/as5047p_hal.c **** 	//Remove this line after implementation!
 127:Drivers/AS5047P/Src/as5047p_hal.c **** //#error "You must implement AS5047P_HAL_SPI_TxRx()"
 128:Drivers/AS5047P/Src/as5047p_hal.c **** }
 129:Drivers/AS5047P/Src/as5047p_hal.c **** 
 130:Drivers/AS5047P/Src/as5047p_hal.c **** /************************************************************************************
 131:Drivers/AS5047P/Src/as5047p_hal.c ****  * 		!!!!!!!!!!!!!!!!!!!!!!!!!!!!!!!!!!!!!!!!!!!!!!!
 132:Drivers/AS5047P/Src/as5047p_hal.c ****  *	 	!!! !!! MUST BE IMPLEMENTED BY THE USER !!! !!!
 133:Drivers/AS5047P/Src/as5047p_hal.c ****  *	 	!!!!!!!!!!!!!!!!!!!!!!!!!!!!!!!!!!!!!!!!!!!!!!!
 134:Drivers/AS5047P/Src/as5047p_hal.c ****  *
 135:Drivers/AS5047P/Src/as5047p_hal.c ****  * 	Function: 	AS5047P_HAL_GPIO_Write(state)
 136:Drivers/AS5047P/Src/as5047p_hal.c ****  * 	Access:		private
 137:Drivers/AS5047P/Src/as5047p_hal.c ****  * 	Inputs:
 138:Drivers/AS5047P/Src/as5047p_hal.c ****  *		state: 0 for low output level,
 139:Drivers/AS5047P/Src/as5047p_hal.c ****  *		       1 for high output level.
 140:Drivers/AS5047P/Src/as5047p_hal.c ****  *
 141:Drivers/AS5047P/Src/as5047p_hal.c ****  * 	Returns:
 142:Drivers/AS5047P/Src/as5047p_hal.c ****  *		Nothing.
 143:Drivers/AS5047P/Src/as5047p_hal.c ****  *
 144:Drivers/AS5047P/Src/as5047p_hal.c ****  * 	Description:
ARM GAS  C:\Users\hide\AppData\Local\Temp\ccCzzKXr.s 			page 4


 145:Drivers/AS5047P/Src/as5047p_hal.c ****  * 	Function allows to clear/set digital output.
 146:Drivers/AS5047P/Src/as5047p_hal.c ****  *
 147:Drivers/AS5047P/Src/as5047p_hal.c ****  ************************************************************************************/
 148:Drivers/AS5047P/Src/as5047p_hal.c **** static void AS5047P_HAL_GPIO_Write(uint8_t state)
 149:Drivers/AS5047P/Src/as5047p_hal.c **** {
 150:Drivers/AS5047P/Src/as5047p_hal.c **** // Write state to currently selected output
 151:Drivers/AS5047P/Src/as5047p_hal.c **** 	HAL_GPIO_WritePin(gpioPort, gpioPin, state);
 152:Drivers/AS5047P/Src/as5047p_hal.c **** 
 153:Drivers/AS5047P/Src/as5047p_hal.c **** 	//Remove this line after implementation!
 154:Drivers/AS5047P/Src/as5047p_hal.c **** //#error "You must implement AS5047P_HAL_GPIO_Write()"
 155:Drivers/AS5047P/Src/as5047p_hal.c **** }
 156:Drivers/AS5047P/Src/as5047p_hal.c **** 
 157:Drivers/AS5047P/Src/as5047p_hal.c **** /************************************************************************************
 158:Drivers/AS5047P/Src/as5047p_hal.c ****  * 		!!!!!!!!!!!!!!!!!!!!!!!!!!!!!!!!!!!!!!!!!!!!!!!
 159:Drivers/AS5047P/Src/as5047p_hal.c ****  *	 	!!! !!! MUST BE IMPLEMENTED BY THE USER !!! !!!
 160:Drivers/AS5047P/Src/as5047p_hal.c ****  *	 	!!!!!!!!!!!!!!!!!!!!!!!!!!!!!!!!!!!!!!!!!!!!!!!
 161:Drivers/AS5047P/Src/as5047p_hal.c ****  *
 162:Drivers/AS5047P/Src/as5047p_hal.c ****  * 	Function: 	AS5047P_SelectSPIAndGPIO(id)
 163:Drivers/AS5047P/Src/as5047p_hal.c ****  * 	Access:		private
 164:Drivers/AS5047P/Src/as5047p_hal.c ****  * 	Inputs:
 165:Drivers/AS5047P/Src/as5047p_hal.c ****  *		id: ID number uniquely identifies an SPI's slave.
 166:Drivers/AS5047P/Src/as5047p_hal.c ****  *
 167:Drivers/AS5047P/Src/as5047p_hal.c ****  * 	Returns:
 168:Drivers/AS5047P/Src/as5047p_hal.c ****  *		-1 : Slave with this id doesn't exist
 169:Drivers/AS5047P/Src/as5047p_hal.c ****  *		 0 : Success.
 170:Drivers/AS5047P/Src/as5047p_hal.c ****  *
 171:Drivers/AS5047P/Src/as5047p_hal.c ****  * 	Description:
 172:Drivers/AS5047P/Src/as5047p_hal.c ****  * 	Function defines relation between slave's id and physical port of CS line
 173:Drivers/AS5047P/Src/as5047p_hal.c ****  * 	as well as SPI periphery (SPI handler) if necessary.
 174:Drivers/AS5047P/Src/as5047p_hal.c ****  *
 175:Drivers/AS5047P/Src/as5047p_hal.c ****  ************************************************************************************/
 176:Drivers/AS5047P/Src/as5047p_hal.c **** static uint8_t AS5047P_SelectSPIAndGPIO(uint16_t id)
 177:Drivers/AS5047P/Src/as5047p_hal.c **** {
  29              		.loc 1 177 1 view -0
  30              		.cfi_startproc
  31              		@ args = 0, pretend = 0, frame = 0
  32              		@ frame_needed = 0, uses_anonymous_args = 0
  33              		@ link register save eliminated.
 178:Drivers/AS5047P/Src/as5047p_hal.c ****   //--- Chip select and SPI selection
 179:Drivers/AS5047P/Src/as5047p_hal.c ****   //--- Each case is for one encoder. If you want to use for example three
 180:Drivers/AS5047P/Src/as5047p_hal.c ****   //--- encoder, you have to prepare here 3 cases (0,1,2).
 181:Drivers/AS5047P/Src/as5047p_hal.c ****   switch (id)
  34              		.loc 1 181 3 view .LVU1
  35 0000 18B1     		cbz	r0, .L2
  36 0002 0128     		cmp	r0, #1
  37 0004 0CD0     		beq	.L3
  38 0006 FF20     		movs	r0, #255
  39              	.LVL1:
  40              		.loc 1 181 3 is_stmt 0 view .LVU2
  41 0008 7047     		bx	lr
  42              	.LVL2:
  43              	.L2:
 182:Drivers/AS5047P/Src/as5047p_hal.c ****    {
 183:Drivers/AS5047P/Src/as5047p_hal.c ****      case 0:
 184:Drivers/AS5047P/Src/as5047p_hal.c ****       // Currently selected CS pin = x
 185:Drivers/AS5047P/Src/as5047p_hal.c **** 	    // Currently selected SPI = xx
 186:Drivers/AS5047P/Src/as5047p_hal.c ****       gpioPort = GPIOA;
ARM GAS  C:\Users\hide\AppData\Local\Temp\ccCzzKXr.s 			page 5


  44              		.loc 1 186 7 is_stmt 1 view .LVU3
  45              		.loc 1 186 16 is_stmt 0 view .LVU4
  46 000a 0B4B     		ldr	r3, .L5
  47 000c 0B4A     		ldr	r2, .L5+4
  48 000e 1A60     		str	r2, [r3]
 187:Drivers/AS5047P/Src/as5047p_hal.c ****     	gpioPin = GPIO_PIN_0;
  49              		.loc 1 187 6 is_stmt 1 view .LVU5
  50              		.loc 1 187 14 is_stmt 0 view .LVU6
  51 0010 0B4B     		ldr	r3, .L5+8
  52 0012 0122     		movs	r2, #1
  53 0014 1A80     		strh	r2, [r3]	@ movhi
 188:Drivers/AS5047P/Src/as5047p_hal.c ****       handlerSPI = &hspi1;
  54              		.loc 1 188 7 is_stmt 1 view .LVU7
  55              		.loc 1 188 18 is_stmt 0 view .LVU8
  56 0016 0B4B     		ldr	r3, .L5+12
  57 0018 0B4A     		ldr	r2, .L5+16
  58 001a 1A60     		str	r2, [r3]
 189:Drivers/AS5047P/Src/as5047p_hal.c ****       break;
  59              		.loc 1 189 7 is_stmt 1 view .LVU9
 190:Drivers/AS5047P/Src/as5047p_hal.c **** 
 191:Drivers/AS5047P/Src/as5047p_hal.c ****      case 1:
 192:Drivers/AS5047P/Src/as5047p_hal.c ****       // Currently selected CS pin = y
 193:Drivers/AS5047P/Src/as5047p_hal.c **** 	    // Currently selected SPI = yy
 194:Drivers/AS5047P/Src/as5047p_hal.c ****       gpioPort = GPIOB;
 195:Drivers/AS5047P/Src/as5047p_hal.c ****     	gpioPin = GPIO_PIN_2;
 196:Drivers/AS5047P/Src/as5047p_hal.c ****     	handlerSPI = &hspi1; 
 197:Drivers/AS5047P/Src/as5047p_hal.c ****       break;
 198:Drivers/AS5047P/Src/as5047p_hal.c **** 
 199:Drivers/AS5047P/Src/as5047p_hal.c ****        //...
 200:Drivers/AS5047P/Src/as5047p_hal.c ****        //... other cases
 201:Drivers/AS5047P/Src/as5047p_hal.c ****        //...
 202:Drivers/AS5047P/Src/as5047p_hal.c **** 
 203:Drivers/AS5047P/Src/as5047p_hal.c ****      //--- Slave with this id doesn't exist
 204:Drivers/AS5047P/Src/as5047p_hal.c ****      default:
 205:Drivers/AS5047P/Src/as5047p_hal.c ****        return -1;
 206:Drivers/AS5047P/Src/as5047p_hal.c ****    }
 207:Drivers/AS5047P/Src/as5047p_hal.c **** 
 208:Drivers/AS5047P/Src/as5047p_hal.c ****   return 0;
  60              		.loc 1 208 10 is_stmt 0 view .LVU10
  61 001c 0020     		movs	r0, #0
  62              	.LVL3:
 189:Drivers/AS5047P/Src/as5047p_hal.c ****       break;
  63              		.loc 1 189 7 view .LVU11
  64 001e 7047     		bx	lr
  65              	.LVL4:
  66              	.L3:
 194:Drivers/AS5047P/Src/as5047p_hal.c ****     	gpioPin = GPIO_PIN_2;
  67              		.loc 1 194 7 is_stmt 1 view .LVU12
 194:Drivers/AS5047P/Src/as5047p_hal.c ****     	gpioPin = GPIO_PIN_2;
  68              		.loc 1 194 16 is_stmt 0 view .LVU13
  69 0020 054B     		ldr	r3, .L5
  70 0022 0A4A     		ldr	r2, .L5+20
  71 0024 1A60     		str	r2, [r3]
 195:Drivers/AS5047P/Src/as5047p_hal.c ****     	handlerSPI = &hspi1; 
  72              		.loc 1 195 6 is_stmt 1 view .LVU14
 195:Drivers/AS5047P/Src/as5047p_hal.c ****     	handlerSPI = &hspi1; 
  73              		.loc 1 195 14 is_stmt 0 view .LVU15
ARM GAS  C:\Users\hide\AppData\Local\Temp\ccCzzKXr.s 			page 6


  74 0026 064B     		ldr	r3, .L5+8
  75 0028 0422     		movs	r2, #4
  76 002a 1A80     		strh	r2, [r3]	@ movhi
 196:Drivers/AS5047P/Src/as5047p_hal.c ****       break;
  77              		.loc 1 196 6 is_stmt 1 view .LVU16
 196:Drivers/AS5047P/Src/as5047p_hal.c ****       break;
  78              		.loc 1 196 17 is_stmt 0 view .LVU17
  79 002c 054B     		ldr	r3, .L5+12
  80 002e 064A     		ldr	r2, .L5+16
  81 0030 1A60     		str	r2, [r3]
 197:Drivers/AS5047P/Src/as5047p_hal.c **** 
  82              		.loc 1 197 7 is_stmt 1 view .LVU18
  83              		.loc 1 208 10 is_stmt 0 view .LVU19
  84 0032 0020     		movs	r0, #0
  85              	.LVL5:
 209:Drivers/AS5047P/Src/as5047p_hal.c **** 
 210:Drivers/AS5047P/Src/as5047p_hal.c **** 	//Remove this line after implementation!
 211:Drivers/AS5047P/Src/as5047p_hal.c **** //#error "You must implement AS5047P_SelectSPIAndGPIO()"
 212:Drivers/AS5047P/Src/as5047p_hal.c **** }
  86              		.loc 1 212 1 view .LVU20
  87 0034 7047     		bx	lr
  88              	.L6:
  89 0036 00BF     		.align	2
  90              	.L5:
  91 0038 00000000 		.word	.LANCHOR0
  92 003c 00000240 		.word	1073872896
  93 0040 00000000 		.word	.LANCHOR1
  94 0044 00000000 		.word	.LANCHOR2
  95 0048 00000000 		.word	hspi1
  96 004c 00040240 		.word	1073873920
  97              		.cfi_endproc
  98              	.LFE255:
 100              		.section	.text.AS5047P_HAL_GPIO_Write,"ax",%progbits
 101              		.align	1
 102              		.syntax unified
 103              		.thumb
 104              		.thumb_func
 106              	AS5047P_HAL_GPIO_Write:
 107              	.LVL6:
 108              	.LFB254:
 149:Drivers/AS5047P/Src/as5047p_hal.c **** // Write state to currently selected output
 109              		.loc 1 149 1 is_stmt 1 view -0
 110              		.cfi_startproc
 111              		@ args = 0, pretend = 0, frame = 0
 112              		@ frame_needed = 0, uses_anonymous_args = 0
 149:Drivers/AS5047P/Src/as5047p_hal.c **** // Write state to currently selected output
 113              		.loc 1 149 1 is_stmt 0 view .LVU22
 114 0000 08B5     		push	{r3, lr}
 115              	.LCFI0:
 116              		.cfi_def_cfa_offset 8
 117              		.cfi_offset 3, -8
 118              		.cfi_offset 14, -4
 119 0002 0246     		mov	r2, r0
 151:Drivers/AS5047P/Src/as5047p_hal.c **** 
 120              		.loc 1 151 2 is_stmt 1 view .LVU23
 121 0004 034B     		ldr	r3, .L9
 122 0006 1988     		ldrh	r1, [r3]
ARM GAS  C:\Users\hide\AppData\Local\Temp\ccCzzKXr.s 			page 7


 123 0008 034B     		ldr	r3, .L9+4
 124 000a 1868     		ldr	r0, [r3]
 125              	.LVL7:
 151:Drivers/AS5047P/Src/as5047p_hal.c **** 
 126              		.loc 1 151 2 is_stmt 0 view .LVU24
 127 000c FFF7FEFF 		bl	HAL_GPIO_WritePin
 128              	.LVL8:
 155:Drivers/AS5047P/Src/as5047p_hal.c **** 
 129              		.loc 1 155 1 view .LVU25
 130 0010 08BD     		pop	{r3, pc}
 131              	.L10:
 132 0012 00BF     		.align	2
 133              	.L9:
 134 0014 00000000 		.word	.LANCHOR1
 135 0018 00000000 		.word	.LANCHOR0
 136              		.cfi_endproc
 137              	.LFE254:
 139              		.section	.text.AS5047P_DeselectSlave,"ax",%progbits
 140              		.align	1
 141              		.syntax unified
 142              		.thumb
 143              		.thumb_func
 145              	AS5047P_DeselectSlave:
 146              	.LVL9:
 147              	.LFB258:
 213:Drivers/AS5047P/Src/as5047p_hal.c **** 
 214:Drivers/AS5047P/Src/as5047p_hal.c **** /************************************************************************************
 215:Drivers/AS5047P/Src/as5047p_hal.c ****  * 		!!!!!!!!!!!!!!!!!!!!!!!!!!!!!!!!!!!!!!!!!!!!!!!
 216:Drivers/AS5047P/Src/as5047p_hal.c ****  *	 	!!! !!! CAN BE IMPLEMENTED BY THE USER  !!! !!!
 217:Drivers/AS5047P/Src/as5047p_hal.c ****  *	 	!!! !!! ONLY IF YOU WANT TO USE DEBUG	!!! !!!
 218:Drivers/AS5047P/Src/as5047p_hal.c ****  *	 	!!!!!!!!!!!!!!!!!!!!!!!!!!!!!!!!!!!!!!!!!!!!!!!
 219:Drivers/AS5047P/Src/as5047p_hal.c ****  *
 220:Drivers/AS5047P/Src/as5047p_hal.c ****  * 	Function: 	AS5047P_HAL_Debug(id,errorCode,errMsg)
 221:Drivers/AS5047P/Src/as5047p_hal.c ****  * 	Access:		public
 222:Drivers/AS5047P/Src/as5047p_hal.c ****  * 	Inputs:
 223:Drivers/AS5047P/Src/as5047p_hal.c ****  *		id: ID number uniquely identifies an SPI's slave. Relation between
 224:Drivers/AS5047P/Src/as5047p_hal.c ****  *		slave's id and physical CS line is defined in AS5047P_SelectSPIAndGPIO.
 225:Drivers/AS5047P/Src/as5047p_hal.c ****  *		errCode: Error code for which debug is to take place.
 226:Drivers/AS5047P/Src/as5047p_hal.c ****  *		errMsg: Error message for 'errCode'
 227:Drivers/AS5047P/Src/as5047p_hal.c ****  *
 228:Drivers/AS5047P/Src/as5047p_hal.c ****  * 	Returns:
 229:Drivers/AS5047P/Src/as5047p_hal.c ****  *		Nothing.
 230:Drivers/AS5047P/Src/as5047p_hal.c ****  *
 231:Drivers/AS5047P/Src/as5047p_hal.c ****  * 	Description:
 232:Drivers/AS5047P/Src/as5047p_hal.c ****  * 	Function handles debug tasks for a given encoder.
 233:Drivers/AS5047P/Src/as5047p_hal.c ****  *
 234:Drivers/AS5047P/Src/as5047p_hal.c ****  ************************************************************************************/
 235:Drivers/AS5047P/Src/as5047p_hal.c **** void AS5047P_HAL_Debug(uint16_t id,int16_t errorCode,char * errMsg)
 236:Drivers/AS5047P/Src/as5047p_hal.c **** {
 237:Drivers/AS5047P/Src/as5047p_hal.c ****   //Print error
 238:Drivers/AS5047P/Src/as5047p_hal.c ****   printf("Encoder ID[%d]> Error %d: %s\n",id,errorCode,errMsg);
 239:Drivers/AS5047P/Src/as5047p_hal.c **** }
 240:Drivers/AS5047P/Src/as5047p_hal.c **** 
 241:Drivers/AS5047P/Src/as5047p_hal.c **** /************************************************************************************
 242:Drivers/AS5047P/Src/as5047p_hal.c ****  *
 243:Drivers/AS5047P/Src/as5047p_hal.c ****  * 	Function: 	AS5047P_SelectSlave(id)
 244:Drivers/AS5047P/Src/as5047p_hal.c ****  * 	Access:		private
ARM GAS  C:\Users\hide\AppData\Local\Temp\ccCzzKXr.s 			page 8


 245:Drivers/AS5047P/Src/as5047p_hal.c ****  * 	Inputs:
 246:Drivers/AS5047P/Src/as5047p_hal.c ****  *		id: ID number uniquely identifies an SPI's slave. Relation between
 247:Drivers/AS5047P/Src/as5047p_hal.c ****  *		slave's id and physical CS line is defined in AS5047P_SelectSPIAndGPIO.
 248:Drivers/AS5047P/Src/as5047p_hal.c ****  *
 249:Drivers/AS5047P/Src/as5047p_hal.c ****  * 	Returns:
 250:Drivers/AS5047P/Src/as5047p_hal.c ****  *		-1 : Slave with this id doesn't exist
 251:Drivers/AS5047P/Src/as5047p_hal.c ****  *		 0 : Success.
 252:Drivers/AS5047P/Src/as5047p_hal.c ****  *
 253:Drivers/AS5047P/Src/as5047p_hal.c ****  * 	Description:
 254:Drivers/AS5047P/Src/as5047p_hal.c ****  * 	Function selects the slave by setting its CS line low.
 255:Drivers/AS5047P/Src/as5047p_hal.c ****  *
 256:Drivers/AS5047P/Src/as5047p_hal.c ****  ************************************************************************************/
 257:Drivers/AS5047P/Src/as5047p_hal.c **** static uint8_t AS5047P_SelectSlave(uint16_t id)
 258:Drivers/AS5047P/Src/as5047p_hal.c **** {
 259:Drivers/AS5047P/Src/as5047p_hal.c ****   //--- Select GPIO and SPI handler
 260:Drivers/AS5047P/Src/as5047p_hal.c ****   if ( AS5047P_SelectSPIAndGPIO (id) < 0 )
 261:Drivers/AS5047P/Src/as5047p_hal.c ****   {   //--- Slave with this id doesn't exist
 262:Drivers/AS5047P/Src/as5047p_hal.c ****       return -1;
 263:Drivers/AS5047P/Src/as5047p_hal.c ****   }
 264:Drivers/AS5047P/Src/as5047p_hal.c ****   //--- CS line set to low level (line occupied)
 265:Drivers/AS5047P/Src/as5047p_hal.c ****   AS5047P_HAL_GPIO_Write(0x00);
 266:Drivers/AS5047P/Src/as5047p_hal.c **** 
 267:Drivers/AS5047P/Src/as5047p_hal.c ****   /************************************************************************************
 268:Drivers/AS5047P/Src/as5047p_hal.c ****   *
 269:Drivers/AS5047P/Src/as5047p_hal.c ****   *	 	!!! !!! CAUTION CAUTION CAUTION  !!! !!!
 270:Drivers/AS5047P/Src/as5047p_hal.c ****   *
 271:Drivers/AS5047P/Src/as5047p_hal.c ****   * AS5047P needs a minimum delay of 350ns between FALLING edge of CS and RISING
 272:Drivers/AS5047P/Src/as5047p_hal.c ****   * edge of SCK signal. So fast CPUs (~180Mhz and more) may need a delay here.
 273:Drivers/AS5047P/Src/as5047p_hal.c ****   *
 274:Drivers/AS5047P/Src/as5047p_hal.c ****   ************************************************************************************/
 275:Drivers/AS5047P/Src/as5047p_hal.c ****   //delay_us(1);
 276:Drivers/AS5047P/Src/as5047p_hal.c **** 
 277:Drivers/AS5047P/Src/as5047p_hal.c ****   return 0;
 278:Drivers/AS5047P/Src/as5047p_hal.c **** }
 279:Drivers/AS5047P/Src/as5047p_hal.c **** 
 280:Drivers/AS5047P/Src/as5047p_hal.c **** /************************************************************************************
 281:Drivers/AS5047P/Src/as5047p_hal.c ****  *
 282:Drivers/AS5047P/Src/as5047p_hal.c ****  * 	Function: 	AS5047P_DeselectSlave(id)
 283:Drivers/AS5047P/Src/as5047p_hal.c ****  * 	Access:		private
 284:Drivers/AS5047P/Src/as5047p_hal.c ****  * 	Inputs:
 285:Drivers/AS5047P/Src/as5047p_hal.c ****  *		id: ID number uniquely identifies an SPI's slave. Relation between
 286:Drivers/AS5047P/Src/as5047p_hal.c ****  *		slave's id and physical CS line is defined in AS5047P_SelectSPIAndGPIO.
 287:Drivers/AS5047P/Src/as5047p_hal.c ****  *
 288:Drivers/AS5047P/Src/as5047p_hal.c ****  * 	Returns:
 289:Drivers/AS5047P/Src/as5047p_hal.c ****  *		-1 : Slave with this id doesn't exist
 290:Drivers/AS5047P/Src/as5047p_hal.c ****  *		 0 : Success.
 291:Drivers/AS5047P/Src/as5047p_hal.c ****  *
 292:Drivers/AS5047P/Src/as5047p_hal.c ****  * 	Description:
 293:Drivers/AS5047P/Src/as5047p_hal.c ****  * 	Function deselects the slave by setting its CS line high.
 294:Drivers/AS5047P/Src/as5047p_hal.c ****  *
 295:Drivers/AS5047P/Src/as5047p_hal.c ****  ************************************************************************************/
 296:Drivers/AS5047P/Src/as5047p_hal.c **** static uint8_t AS5047P_DeselectSlave(uint16_t id)
 297:Drivers/AS5047P/Src/as5047p_hal.c **** {
 148              		.loc 1 297 1 is_stmt 1 view -0
 149              		.cfi_startproc
 150              		@ args = 0, pretend = 0, frame = 0
 151              		@ frame_needed = 0, uses_anonymous_args = 0
ARM GAS  C:\Users\hide\AppData\Local\Temp\ccCzzKXr.s 			page 9


 152              		.loc 1 297 1 is_stmt 0 view .LVU27
 153 0000 08B5     		push	{r3, lr}
 154              	.LCFI1:
 155              		.cfi_def_cfa_offset 8
 156              		.cfi_offset 3, -8
 157              		.cfi_offset 14, -4
 298:Drivers/AS5047P/Src/as5047p_hal.c ****   //--- Select GPIO and SPI handler
 299:Drivers/AS5047P/Src/as5047p_hal.c ****   if ( AS5047P_SelectSPIAndGPIO (id) < 0 )
 158              		.loc 1 299 3 is_stmt 1 view .LVU28
 159              		.loc 1 299 8 is_stmt 0 view .LVU29
 160 0002 FFF7FEFF 		bl	AS5047P_SelectSPIAndGPIO
 161              	.LVL10:
 300:Drivers/AS5047P/Src/as5047p_hal.c ****   {   //--- Slave with this id doesn't exist
 301:Drivers/AS5047P/Src/as5047p_hal.c ****       return -1;
 302:Drivers/AS5047P/Src/as5047p_hal.c ****   }
 303:Drivers/AS5047P/Src/as5047p_hal.c ****   //--- CS line set to high level (line released)
 304:Drivers/AS5047P/Src/as5047p_hal.c ****   AS5047P_HAL_GPIO_Write(0x01);
 162              		.loc 1 304 3 is_stmt 1 view .LVU30
 163 0006 0120     		movs	r0, #1
 164 0008 FFF7FEFF 		bl	AS5047P_HAL_GPIO_Write
 165              	.LVL11:
 305:Drivers/AS5047P/Src/as5047p_hal.c **** 
 306:Drivers/AS5047P/Src/as5047p_hal.c ****   /************************************************************************************
 307:Drivers/AS5047P/Src/as5047p_hal.c ****   *
 308:Drivers/AS5047P/Src/as5047p_hal.c ****   *	 	!!! !!! CAUTION CAUTION CAUTION  !!! !!!
 309:Drivers/AS5047P/Src/as5047p_hal.c ****   * AS5047P needs a minimum delay of 350ns between RISING and FALLING endge of CS.
 310:Drivers/AS5047P/Src/as5047p_hal.c ****   * So fast CPUs (~180Mhz and more) may need a delay here.
 311:Drivers/AS5047P/Src/as5047p_hal.c ****   *
 312:Drivers/AS5047P/Src/as5047p_hal.c ****   ************************************************************************************/
 313:Drivers/AS5047P/Src/as5047p_hal.c ****   //delay_us(1);
 314:Drivers/AS5047P/Src/as5047p_hal.c **** 
 315:Drivers/AS5047P/Src/as5047p_hal.c ****   return 0;
 166              		.loc 1 315 3 view .LVU31
 316:Drivers/AS5047P/Src/as5047p_hal.c **** }
 167              		.loc 1 316 1 is_stmt 0 view .LVU32
 168 000c 0020     		movs	r0, #0
 169 000e 08BD     		pop	{r3, pc}
 170              		.cfi_endproc
 171              	.LFE258:
 173              		.section	.text.AS5047P_SelectSlave,"ax",%progbits
 174              		.align	1
 175              		.syntax unified
 176              		.thumb
 177              		.thumb_func
 179              	AS5047P_SelectSlave:
 180              	.LVL12:
 181              	.LFB257:
 258:Drivers/AS5047P/Src/as5047p_hal.c ****   //--- Select GPIO and SPI handler
 182              		.loc 1 258 1 is_stmt 1 view -0
 183              		.cfi_startproc
 184              		@ args = 0, pretend = 0, frame = 0
 185              		@ frame_needed = 0, uses_anonymous_args = 0
 258:Drivers/AS5047P/Src/as5047p_hal.c ****   //--- Select GPIO and SPI handler
 186              		.loc 1 258 1 is_stmt 0 view .LVU34
 187 0000 08B5     		push	{r3, lr}
 188              	.LCFI2:
 189              		.cfi_def_cfa_offset 8
ARM GAS  C:\Users\hide\AppData\Local\Temp\ccCzzKXr.s 			page 10


 190              		.cfi_offset 3, -8
 191              		.cfi_offset 14, -4
 260:Drivers/AS5047P/Src/as5047p_hal.c ****   {   //--- Slave with this id doesn't exist
 192              		.loc 1 260 3 is_stmt 1 view .LVU35
 260:Drivers/AS5047P/Src/as5047p_hal.c ****   {   //--- Slave with this id doesn't exist
 193              		.loc 1 260 8 is_stmt 0 view .LVU36
 194 0002 FFF7FEFF 		bl	AS5047P_SelectSPIAndGPIO
 195              	.LVL13:
 265:Drivers/AS5047P/Src/as5047p_hal.c **** 
 196              		.loc 1 265 3 is_stmt 1 view .LVU37
 197 0006 0020     		movs	r0, #0
 198 0008 FFF7FEFF 		bl	AS5047P_HAL_GPIO_Write
 199              	.LVL14:
 277:Drivers/AS5047P/Src/as5047p_hal.c **** }
 200              		.loc 1 277 3 view .LVU38
 278:Drivers/AS5047P/Src/as5047p_hal.c **** 
 201              		.loc 1 278 1 is_stmt 0 view .LVU39
 202 000c 0020     		movs	r0, #0
 203 000e 08BD     		pop	{r3, pc}
 204              		.cfi_endproc
 205              	.LFE257:
 207              		.section	.text.AS5047P_HAL_SPI_TxRx,"ax",%progbits
 208              		.align	1
 209              		.syntax unified
 210              		.thumb
 211              		.thumb_func
 213              	AS5047P_HAL_SPI_TxRx:
 214              	.LVL15:
 215              	.LFB253:
 109:Drivers/AS5047P/Src/as5047p_hal.c **** 
 216              		.loc 1 109 1 is_stmt 1 view -0
 217              		.cfi_startproc
 218              		@ args = 0, pretend = 0, frame = 0
 219              		@ frame_needed = 0, uses_anonymous_args = 0
 109:Drivers/AS5047P/Src/as5047p_hal.c **** 
 220              		.loc 1 109 1 is_stmt 0 view .LVU41
 221 0000 00B5     		push	{lr}
 222              	.LCFI3:
 223              		.cfi_def_cfa_offset 4
 224              		.cfi_offset 14, -4
 225 0002 83B0     		sub	sp, sp, #12
 226              	.LCFI4:
 227              		.cfi_def_cfa_offset 16
 228 0004 0A46     		mov	r2, r1
 112:Drivers/AS5047P/Src/as5047p_hal.c **** 	spiStatus = HAL_SPI_TransmitReceive(handlerSPI, (uint8_t *)pTx, (uint8_t *)pRx, 1, HAL_MAX_DELAY);
 229              		.loc 1 112 2 is_stmt 1 view .LVU42
 113:Drivers/AS5047P/Src/as5047p_hal.c **** 
 230              		.loc 1 113 2 view .LVU43
 113:Drivers/AS5047P/Src/as5047p_hal.c **** 
 231              		.loc 1 113 14 is_stmt 0 view .LVU44
 232 0006 4FF0FF33 		mov	r3, #-1
 233 000a 0093     		str	r3, [sp]
 234 000c 0123     		movs	r3, #1
 235 000e 0146     		mov	r1, r0
 236              	.LVL16:
 113:Drivers/AS5047P/Src/as5047p_hal.c **** 
 237              		.loc 1 113 14 view .LVU45
ARM GAS  C:\Users\hide\AppData\Local\Temp\ccCzzKXr.s 			page 11


 238 0010 0448     		ldr	r0, .L20
 239              	.LVL17:
 113:Drivers/AS5047P/Src/as5047p_hal.c **** 
 240              		.loc 1 113 14 view .LVU46
 241 0012 0068     		ldr	r0, [r0]
 242 0014 FFF7FEFF 		bl	HAL_SPI_TransmitReceive
 243              	.LVL18:
 115:Drivers/AS5047P/Src/as5047p_hal.c **** 		return -1;
 244              		.loc 1 115 2 is_stmt 1 view .LVU47
 115:Drivers/AS5047P/Src/as5047p_hal.c **** 		return -1;
 245              		.loc 1 115 4 is_stmt 0 view .LVU48
 246 0018 10B9     		cbnz	r0, .L19
 247              	.L16:
 128:Drivers/AS5047P/Src/as5047p_hal.c **** 
 248              		.loc 1 128 1 view .LVU49
 249 001a 03B0     		add	sp, sp, #12
 250              	.LCFI5:
 251              		.cfi_remember_state
 252              		.cfi_def_cfa_offset 4
 253              		@ sp needed
 254 001c 5DF804FB 		ldr	pc, [sp], #4
 255              	.L19:
 256              	.LCFI6:
 257              		.cfi_restore_state
 116:Drivers/AS5047P/Src/as5047p_hal.c **** 	}
 258              		.loc 1 116 10 view .LVU50
 259 0020 FF20     		movs	r0, #255
 260 0022 FAE7     		b	.L16
 261              	.L21:
 262              		.align	2
 263              	.L20:
 264 0024 00000000 		.word	.LANCHOR2
 265              		.cfi_endproc
 266              	.LFE253:
 268              		.section	.text.AS5047P_HAL_Delay_ms,"ax",%progbits
 269              		.align	1
 270              		.global	AS5047P_HAL_Delay_ms
 271              		.syntax unified
 272              		.thumb
 273              		.thumb_func
 275              	AS5047P_HAL_Delay_ms:
 276              	.LVL19:
 277              	.LFB252:
  72:Drivers/AS5047P/Src/as5047p_hal.c **** 	//Delay in miliseconds
 278              		.loc 1 72 1 is_stmt 1 view -0
 279              		.cfi_startproc
 280              		@ args = 0, pretend = 0, frame = 0
 281              		@ frame_needed = 0, uses_anonymous_args = 0
  72:Drivers/AS5047P/Src/as5047p_hal.c **** 	//Delay in miliseconds
 282              		.loc 1 72 1 is_stmt 0 view .LVU52
 283 0000 08B5     		push	{r3, lr}
 284              	.LCFI7:
 285              		.cfi_def_cfa_offset 8
 286              		.cfi_offset 3, -8
 287              		.cfi_offset 14, -4
  74:Drivers/AS5047P/Src/as5047p_hal.c **** 
 288              		.loc 1 74 2 is_stmt 1 view .LVU53
ARM GAS  C:\Users\hide\AppData\Local\Temp\ccCzzKXr.s 			page 12


 289 0002 FFF7FEFF 		bl	HAL_Delay
 290              	.LVL20:
  79:Drivers/AS5047P/Src/as5047p_hal.c **** 
 291              		.loc 1 79 1 is_stmt 0 view .LVU54
 292 0006 08BD     		pop	{r3, pc}
 293              		.cfi_endproc
 294              	.LFE252:
 296              		.section	.rodata.AS5047P_HAL_Debug.str1.4,"aMS",%progbits,1
 297              		.align	2
 298              	.LC0:
 299 0000 456E636F 		.ascii	"Encoder ID[%d]> Error %d: %s\012\000"
 299      64657220 
 299      49445B25 
 299      645D3E20 
 299      4572726F 
 300              		.section	.text.AS5047P_HAL_Debug,"ax",%progbits
 301              		.align	1
 302              		.global	AS5047P_HAL_Debug
 303              		.syntax unified
 304              		.thumb
 305              		.thumb_func
 307              	AS5047P_HAL_Debug:
 308              	.LVL21:
 309              	.LFB256:
 236:Drivers/AS5047P/Src/as5047p_hal.c ****   //Print error
 310              		.loc 1 236 1 is_stmt 1 view -0
 311              		.cfi_startproc
 312              		@ args = 0, pretend = 0, frame = 0
 313              		@ frame_needed = 0, uses_anonymous_args = 0
 236:Drivers/AS5047P/Src/as5047p_hal.c ****   //Print error
 314              		.loc 1 236 1 is_stmt 0 view .LVU56
 315 0000 08B5     		push	{r3, lr}
 316              	.LCFI8:
 317              		.cfi_def_cfa_offset 8
 318              		.cfi_offset 3, -8
 319              		.cfi_offset 14, -4
 320 0002 1346     		mov	r3, r2
 238:Drivers/AS5047P/Src/as5047p_hal.c **** }
 321              		.loc 1 238 3 is_stmt 1 view .LVU57
 322 0004 0A46     		mov	r2, r1
 323              	.LVL22:
 238:Drivers/AS5047P/Src/as5047p_hal.c **** }
 324              		.loc 1 238 3 is_stmt 0 view .LVU58
 325 0006 0146     		mov	r1, r0
 326              	.LVL23:
 238:Drivers/AS5047P/Src/as5047p_hal.c **** }
 327              		.loc 1 238 3 view .LVU59
 328 0008 0148     		ldr	r0, .L26
 329              	.LVL24:
 238:Drivers/AS5047P/Src/as5047p_hal.c **** }
 330              		.loc 1 238 3 view .LVU60
 331 000a FFF7FEFF 		bl	printf
 332              	.LVL25:
 239:Drivers/AS5047P/Src/as5047p_hal.c **** 
 333              		.loc 1 239 1 view .LVU61
 334 000e 08BD     		pop	{r3, pc}
 335              	.L27:
ARM GAS  C:\Users\hide\AppData\Local\Temp\ccCzzKXr.s 			page 13


 336              		.align	2
 337              	.L26:
 338 0010 00000000 		.word	.LC0
 339              		.cfi_endproc
 340              	.LFE256:
 342              		.section	.text.AS5047P_HAL_Init,"ax",%progbits
 343              		.align	1
 344              		.global	AS5047P_HAL_Init
 345              		.syntax unified
 346              		.thumb
 347              		.thumb_func
 349              	AS5047P_HAL_Init:
 350              	.LVL26:
 351              	.LFB259:
 317:Drivers/AS5047P/Src/as5047p_hal.c **** 
 318:Drivers/AS5047P/Src/as5047p_hal.c **** /************************************************************************************
 319:Drivers/AS5047P/Src/as5047p_hal.c ****  *
 320:Drivers/AS5047P/Src/as5047p_hal.c ****  * 	Function: 	AS5047P_HAL_Init(void)
 321:Drivers/AS5047P/Src/as5047p_hal.c ****  * 	Access:		public
 322:Drivers/AS5047P/Src/as5047p_hal.c ****  * 	Inputs:
 323:Drivers/AS5047P/Src/as5047p_hal.c ****  *		id: ID number uniquely identifies an SPI's slave. Relation between
 324:Drivers/AS5047P/Src/as5047p_hal.c ****  *		slave's id and physical CS line is defined in AS5047P_SelectSPIAndGPIO.
 325:Drivers/AS5047P/Src/as5047p_hal.c ****  *
 326:Drivers/AS5047P/Src/as5047p_hal.c ****  * 	Returns:
 327:Drivers/AS5047P/Src/as5047p_hal.c ****  *		-1 : Execution with errors.
 328:Drivers/AS5047P/Src/as5047p_hal.c ****  *		 0 : Success.
 329:Drivers/AS5047P/Src/as5047p_hal.c ****  *
 330:Drivers/AS5047P/Src/as5047p_hal.c ****  * 	Description:
 331:Drivers/AS5047P/Src/as5047p_hal.c ****  * 	Function used to initialize low level hardware (CS lines, GPIO, etc).
 332:Drivers/AS5047P/Src/as5047p_hal.c ****  *
 333:Drivers/AS5047P/Src/as5047p_hal.c ****  ************************************************************************************/
 334:Drivers/AS5047P/Src/as5047p_hal.c **** uint8_t AS5047P_HAL_Init(uint16_t id)
 335:Drivers/AS5047P/Src/as5047p_hal.c **** {
 352              		.loc 1 335 1 is_stmt 1 view -0
 353              		.cfi_startproc
 354              		@ args = 0, pretend = 0, frame = 0
 355              		@ frame_needed = 0, uses_anonymous_args = 0
 356              		.loc 1 335 1 is_stmt 0 view .LVU63
 357 0000 08B5     		push	{r3, lr}
 358              	.LCFI9:
 359              		.cfi_def_cfa_offset 8
 360              		.cfi_offset 3, -8
 361              		.cfi_offset 14, -4
 336:Drivers/AS5047P/Src/as5047p_hal.c ****   //--- Deselect SPI slave
 337:Drivers/AS5047P/Src/as5047p_hal.c ****   if ( AS5047P_DeselectSlave (id) < 0 )
 362              		.loc 1 337 3 is_stmt 1 view .LVU64
 363              		.loc 1 337 8 is_stmt 0 view .LVU65
 364 0002 FFF7FEFF 		bl	AS5047P_DeselectSlave
 365              	.LVL27:
 338:Drivers/AS5047P/Src/as5047p_hal.c ****   {   //--- Slave with this id doesn't exist
 339:Drivers/AS5047P/Src/as5047p_hal.c ****       return -1;
 340:Drivers/AS5047P/Src/as5047p_hal.c ****   }
 341:Drivers/AS5047P/Src/as5047p_hal.c **** 
 342:Drivers/AS5047P/Src/as5047p_hal.c ****   return 0;
 366              		.loc 1 342 3 is_stmt 1 view .LVU66
 343:Drivers/AS5047P/Src/as5047p_hal.c **** }
 367              		.loc 1 343 1 is_stmt 0 view .LVU67
ARM GAS  C:\Users\hide\AppData\Local\Temp\ccCzzKXr.s 			page 14


 368 0006 0020     		movs	r0, #0
 369 0008 08BD     		pop	{r3, pc}
 370              		.cfi_endproc
 371              	.LFE259:
 373              		.section	.text.AS5047P_HAL_SPI_Transaction,"ax",%progbits
 374              		.align	1
 375              		.global	AS5047P_HAL_SPI_Transaction
 376              		.syntax unified
 377              		.thumb
 378              		.thumb_func
 380              	AS5047P_HAL_SPI_Transaction:
 381              	.LVL28:
 382              	.LFB260:
 344:Drivers/AS5047P/Src/as5047p_hal.c **** 
 345:Drivers/AS5047P/Src/as5047p_hal.c **** /************************************************************************************
 346:Drivers/AS5047P/Src/as5047p_hal.c ****  *
 347:Drivers/AS5047P/Src/as5047p_hal.c ****  * 	Function: 	AS5047P_HAL_SPI_TxRx(pTx,pRx)
 348:Drivers/AS5047P/Src/as5047p_hal.c ****  * 	Access:		public
 349:Drivers/AS5047P/Src/as5047p_hal.c ****  * 	Inputs:
 350:Drivers/AS5047P/Src/as5047p_hal.c ****  *		pTx: Pointer to two-byte field containing data to put on SPI MOSI line.
 351:Drivers/AS5047P/Src/as5047p_hal.c ****  *		pRx: Pointer to two-byte field to be filled with SPI MISO line data.
 352:Drivers/AS5047P/Src/as5047p_hal.c ****  *		id: ID number uniquely identifies an SPI's slave. Relation between
 353:Drivers/AS5047P/Src/as5047p_hal.c ****  *		slave's id and physical CS line is defined in AS5047P_SelectSPIAndGPIO.
 354:Drivers/AS5047P/Src/as5047p_hal.c ****  *
 355:Drivers/AS5047P/Src/as5047p_hal.c ****  * 	Returns:
 356:Drivers/AS5047P/Src/as5047p_hal.c ****  *		-1 : Execution with errors.
 357:Drivers/AS5047P/Src/as5047p_hal.c ****  *		 0 : Success.
 358:Drivers/AS5047P/Src/as5047p_hal.c ****  *
 359:Drivers/AS5047P/Src/as5047p_hal.c ****  * 	Description:
 360:Drivers/AS5047P/Src/as5047p_hal.c ****  * 	Function is used for full-duplex SPI transactions as well as slave selection.
 361:Drivers/AS5047P/Src/as5047p_hal.c ****  *
 362:Drivers/AS5047P/Src/as5047p_hal.c ****  ************************************************************************************/
 363:Drivers/AS5047P/Src/as5047p_hal.c **** uint8_t AS5047P_HAL_SPI_Transaction(uint16_t * pTx, uint16_t * pRx, uint16_t id)
 364:Drivers/AS5047P/Src/as5047p_hal.c **** {
 383              		.loc 1 364 1 is_stmt 1 view -0
 384              		.cfi_startproc
 385              		@ args = 0, pretend = 0, frame = 0
 386              		@ frame_needed = 0, uses_anonymous_args = 0
 387              		.loc 1 364 1 is_stmt 0 view .LVU69
 388 0000 70B5     		push	{r4, r5, r6, lr}
 389              	.LCFI10:
 390              		.cfi_def_cfa_offset 16
 391              		.cfi_offset 4, -16
 392              		.cfi_offset 5, -12
 393              		.cfi_offset 6, -8
 394              		.cfi_offset 14, -4
 395 0002 0546     		mov	r5, r0
 396 0004 0E46     		mov	r6, r1
 397 0006 1446     		mov	r4, r2
 365:Drivers/AS5047P/Src/as5047p_hal.c ****   uint8_t err;
 398              		.loc 1 365 3 is_stmt 1 view .LVU70
 366:Drivers/AS5047P/Src/as5047p_hal.c **** 
 367:Drivers/AS5047P/Src/as5047p_hal.c ****   //--- Select SPI slave
 368:Drivers/AS5047P/Src/as5047p_hal.c ****   if ( AS5047P_SelectSlave (id) < 0 )
 399              		.loc 1 368 3 view .LVU71
 400              		.loc 1 368 8 is_stmt 0 view .LVU72
 401 0008 1046     		mov	r0, r2
ARM GAS  C:\Users\hide\AppData\Local\Temp\ccCzzKXr.s 			page 15


 402              	.LVL29:
 403              		.loc 1 368 8 view .LVU73
 404 000a FFF7FEFF 		bl	AS5047P_SelectSlave
 405              	.LVL30:
 369:Drivers/AS5047P/Src/as5047p_hal.c ****   {   //--- Slave with this id doesn't exist
 370:Drivers/AS5047P/Src/as5047p_hal.c ****       return -1;
 371:Drivers/AS5047P/Src/as5047p_hal.c ****   }
 372:Drivers/AS5047P/Src/as5047p_hal.c **** 
 373:Drivers/AS5047P/Src/as5047p_hal.c ****   err = AS5047P_HAL_SPI_TxRx(pTx,pRx);
 406              		.loc 1 373 3 is_stmt 1 view .LVU74
 407              		.loc 1 373 9 is_stmt 0 view .LVU75
 408 000e 3146     		mov	r1, r6
 409 0010 2846     		mov	r0, r5
 410 0012 FFF7FEFF 		bl	AS5047P_HAL_SPI_TxRx
 411              	.LVL31:
 374:Drivers/AS5047P/Src/as5047p_hal.c **** 
 375:Drivers/AS5047P/Src/as5047p_hal.c ****   /************************************************************************************
 376:Drivers/AS5047P/Src/as5047p_hal.c ****   *
 377:Drivers/AS5047P/Src/as5047p_hal.c ****   *	 	!!! !!! CAUTION CAUTION CAUTION  !!! !!!
 378:Drivers/AS5047P/Src/as5047p_hal.c ****   * AS5047P needs a minimum delay of 1/2*SPI_sck period between FALLING edge of last SCK
 379:Drivers/AS5047P/Src/as5047p_hal.c ****   * and RISING edge of CS signal. So fast CPUs may need a delay here.
 380:Drivers/AS5047P/Src/as5047p_hal.c ****   *
 381:Drivers/AS5047P/Src/as5047p_hal.c ****   ************************************************************************************/
 382:Drivers/AS5047P/Src/as5047p_hal.c ****   //delay_us(1);
 383:Drivers/AS5047P/Src/as5047p_hal.c **** 
 384:Drivers/AS5047P/Src/as5047p_hal.c ****   //--- Slave deselection
 385:Drivers/AS5047P/Src/as5047p_hal.c ****   AS5047P_DeselectSlave(id);
 412              		.loc 1 385 3 is_stmt 1 view .LVU76
 413 0016 2046     		mov	r0, r4
 414 0018 FFF7FEFF 		bl	AS5047P_DeselectSlave
 415              	.LVL32:
 386:Drivers/AS5047P/Src/as5047p_hal.c **** 
 387:Drivers/AS5047P/Src/as5047p_hal.c ****   if( err < 0)
 416              		.loc 1 387 3 view .LVU77
 388:Drivers/AS5047P/Src/as5047p_hal.c ****   {
 389:Drivers/AS5047P/Src/as5047p_hal.c ****       return -1;
 390:Drivers/AS5047P/Src/as5047p_hal.c ****   }
 391:Drivers/AS5047P/Src/as5047p_hal.c **** 
 392:Drivers/AS5047P/Src/as5047p_hal.c ****   return 0;
 417              		.loc 1 392 3 view .LVU78
 393:Drivers/AS5047P/Src/as5047p_hal.c **** }
 418              		.loc 1 393 1 is_stmt 0 view .LVU79
 419 001c 0020     		movs	r0, #0
 420 001e 70BD     		pop	{r4, r5, r6, pc}
 421              		.loc 1 393 1 view .LVU80
 422              		.cfi_endproc
 423              	.LFE260:
 425              		.section	.bss.gpioPin,"aw",%nobits
 426              		.align	1
 427              		.set	.LANCHOR1,. + 0
 430              	gpioPin:
 431 0000 0000     		.space	2
 432              		.section	.bss.gpioPort,"aw",%nobits
 433              		.align	2
 434              		.set	.LANCHOR0,. + 0
 437              	gpioPort:
 438 0000 00000000 		.space	4
ARM GAS  C:\Users\hide\AppData\Local\Temp\ccCzzKXr.s 			page 16


 439              		.section	.bss.handlerSPI,"aw",%nobits
 440              		.align	2
 441              		.set	.LANCHOR2,. + 0
 444              	handlerSPI:
 445 0000 00000000 		.space	4
 446              		.text
 447              	.Letext0:
 448              		.file 2 "c:\\tools\\gcc-arm-none-eabi-10.3-2021.10\\arm-none-eabi\\include\\machine\\_default_type
 449              		.file 3 "c:\\tools\\gcc-arm-none-eabi-10.3-2021.10\\arm-none-eabi\\include\\sys\\_stdint.h"
 450              		.file 4 "Drivers/CMSIS/Device/ST/STM32F4xx/Include/stm32f412cx.h"
 451              		.file 5 "Drivers/STM32F4xx_HAL_Driver/Inc/stm32f4xx_hal_def.h"
 452              		.file 6 "Drivers/STM32F4xx_HAL_Driver/Inc/stm32f4xx_hal_dma.h"
 453              		.file 7 "Drivers/STM32F4xx_HAL_Driver/Inc/stm32f4xx_hal_spi.h"
 454              		.file 8 "c:\\tools\\gcc-arm-none-eabi-10.3-2021.10\\arm-none-eabi\\include\\stdio.h"
 455              		.file 9 "Drivers/STM32F4xx_HAL_Driver/Inc/stm32f4xx_hal_gpio.h"
 456              		.file 10 "Drivers/STM32F4xx_HAL_Driver/Inc/stm32f4xx_hal.h"
 457              		.file 11 "Core/Inc/spi.h"
ARM GAS  C:\Users\hide\AppData\Local\Temp\ccCzzKXr.s 			page 17

