ARM GAS  C:\Users\neko2\AppData\Local\Temp\ccWG4MHW.s 			page 1


   1              		.cpu cortex-m4
   2              		.arch armv7e-m
   3              		.fpu fpv4-sp-d16
   4              		.eabi_attribute 27, 1
   5              		.eabi_attribute 28, 1
   6              		.eabi_attribute 20, 1
   7              		.eabi_attribute 21, 1
   8              		.eabi_attribute 23, 3
   9              		.eabi_attribute 24, 1
  10              		.eabi_attribute 25, 1
  11              		.eabi_attribute 26, 1
  12              		.eabi_attribute 30, 1
  13              		.eabi_attribute 34, 1
  14              		.eabi_attribute 18, 4
  15              		.file	"main.c"
  16              		.text
  17              	.Ltext0:
  18              		.cfi_sections	.debug_frame
  19              		.section	.text.SetLED,"ax",%progbits
  20              		.align	1
  21              		.global	SetLED
  22              		.syntax unified
  23              		.thumb
  24              		.thumb_func
  26              	SetLED:
  27              	.LVL0:
  28              	.LFB252:
  29              		.file 1 "Core/Src/main.c"
   1:Core/Src/main.c **** /* USER CODE BEGIN Header */
   2:Core/Src/main.c **** /**
   3:Core/Src/main.c ****   ******************************************************************************
   4:Core/Src/main.c ****   * @file           : main.c
   5:Core/Src/main.c ****   * @brief          : Main program body
   6:Core/Src/main.c ****   ******************************************************************************
   7:Core/Src/main.c ****   * @attention
   8:Core/Src/main.c ****   *
   9:Core/Src/main.c ****   * Copyright (c) 2022 STMicroelectronics.
  10:Core/Src/main.c ****   * All rights reserved.
  11:Core/Src/main.c ****   *
  12:Core/Src/main.c ****   * This software is licensed under terms that can be found in the LICENSE file
  13:Core/Src/main.c ****   * in the root directory of this software component.
  14:Core/Src/main.c ****   * If no LICENSE file comes with this software, it is provided AS-IS.
  15:Core/Src/main.c ****   *
  16:Core/Src/main.c ****   ******************************************************************************
  17:Core/Src/main.c ****   */
  18:Core/Src/main.c **** /* USER CODE END Header */
  19:Core/Src/main.c **** /* Includes ------------------------------------------------------------------*/
  20:Core/Src/main.c **** #include "main.h"
  21:Core/Src/main.c **** #include "adc.h"
  22:Core/Src/main.c **** #include "dma.h"
  23:Core/Src/main.c **** #include "spi.h"
  24:Core/Src/main.c **** #include "tim.h"
  25:Core/Src/main.c **** #include "usart.h"
  26:Core/Src/main.c **** #include "gpio.h"
  27:Core/Src/main.c **** 
  28:Core/Src/main.c **** /* Private includes ----------------------------------------------------------*/
  29:Core/Src/main.c **** /* USER CODE BEGIN Includes */
ARM GAS  C:\Users\neko2\AppData\Local\Temp\ccWG4MHW.s 			page 2


  30:Core/Src/main.c **** #include<stdio.h>
  31:Core/Src/main.c **** #include<stdlib.h>
  32:Core/Src/main.c **** #include<math.h>
  33:Core/Src/main.c **** #include"param.h"
  34:Core/Src/main.c **** #include"ICM_20648.h"
  35:Core/Src/main.c **** #include"as5047p.h"
  36:Core/Src/main.c **** #define ARM_MATH_CM4
  37:Core/Src/main.c **** #include"arm_math.h"
  38:Core/Src/main.c **** /* USER CODE END Includes */
  39:Core/Src/main.c **** 
  40:Core/Src/main.c **** /* Private typedef -----------------------------------------------------------*/
  41:Core/Src/main.c **** /* USER CODE BEGIN PTD */
  42:Core/Src/main.c **** 
  43:Core/Src/main.c **** /* USER CODE END PTD */
  44:Core/Src/main.c **** 
  45:Core/Src/main.c **** /* Private define ------------------------------------------------------------*/
  46:Core/Src/main.c **** /* USER CODE BEGIN PD */
  47:Core/Src/main.c **** /* USER CODE END PD */
  48:Core/Src/main.c **** 
  49:Core/Src/main.c **** /* Private macro -------------------------------------------------------------*/
  50:Core/Src/main.c **** /* USER CODE BEGIN PM */
  51:Core/Src/main.c **** 
  52:Core/Src/main.c **** /* USER CODE END PM */
  53:Core/Src/main.c **** 
  54:Core/Src/main.c **** /* Private variables ---------------------------------------------------------*/
  55:Core/Src/main.c **** 
  56:Core/Src/main.c **** /* USER CODE BEGIN PV */
  57:Core/Src/main.c **** 
  58:Core/Src/main.c **** /* USER CODE END PV */
  59:Core/Src/main.c **** 
  60:Core/Src/main.c **** /* Private function prototypes -----------------------------------------------*/
  61:Core/Src/main.c **** void SystemClock_Config(void);
  62:Core/Src/main.c **** /* USER CODE BEGIN PFP */
  63:Core/Src/main.c **** 
  64:Core/Src/main.c **** /* USER CODE END PFP */
  65:Core/Src/main.c **** 
  66:Core/Src/main.c **** /* Private user code ---------------------------------------------------------*/
  67:Core/Src/main.c **** /* USER CODE BEGIN 0 */
  68:Core/Src/main.c **** 
  69:Core/Src/main.c **** void SetLED(uint8_t led){
  30              		.loc 1 69 25 view -0
  31              		.cfi_startproc
  32              		@ args = 0, pretend = 0, frame = 0
  33              		@ frame_needed = 0, uses_anonymous_args = 0
  34              		.loc 1 69 25 is_stmt 0 view .LVU1
  35 0000 38B5     		push	{r3, r4, r5, lr}
  36              	.LCFI0:
  37              		.cfi_def_cfa_offset 16
  38              		.cfi_offset 3, -16
  39              		.cfi_offset 4, -12
  40              		.cfi_offset 5, -8
  41              		.cfi_offset 14, -4
  42 0002 0446     		mov	r4, r0
  70:Core/Src/main.c ****   HAL_GPIO_WritePin(D3_GPIO_Port,D3_Pin,!(led & 0b001));
  43              		.loc 1 70 3 is_stmt 1 view .LVU2
  44 0004 80F00102 		eor	r2, r0, #1
  45 0008 0E4D     		ldr	r5, .L3
ARM GAS  C:\Users\neko2\AppData\Local\Temp\ccWG4MHW.s 			page 3


  46 000a 02F00102 		and	r2, r2, #1
  47 000e 4FF40051 		mov	r1, #8192
  48 0012 2846     		mov	r0, r5
  49              	.LVL1:
  50              		.loc 1 70 3 is_stmt 0 view .LVU3
  51 0014 FFF7FEFF 		bl	HAL_GPIO_WritePin
  52              	.LVL2:
  71:Core/Src/main.c ****   HAL_GPIO_WritePin(D4_GPIO_Port,D4_Pin,!(led & 0b010));
  53              		.loc 1 71 3 is_stmt 1 view .LVU4
  54 0018 6208     		lsrs	r2, r4, #1
  55 001a 82F00102 		eor	r2, r2, #1
  56 001e 02F00102 		and	r2, r2, #1
  57 0022 4FF48041 		mov	r1, #16384
  58 0026 2846     		mov	r0, r5
  59 0028 FFF7FEFF 		bl	HAL_GPIO_WritePin
  60              	.LVL3:
  72:Core/Src/main.c ****   HAL_GPIO_WritePin(D5_GPIO_Port,D5_Pin,!(led & 0b100));
  61              		.loc 1 72 3 view .LVU5
  62 002c A208     		lsrs	r2, r4, #2
  63 002e 82F00102 		eor	r2, r2, #1
  64 0032 02F00102 		and	r2, r2, #1
  65 0036 4FF40041 		mov	r1, #32768
  66 003a 2846     		mov	r0, r5
  67 003c FFF7FEFF 		bl	HAL_GPIO_WritePin
  68              	.LVL4:
  73:Core/Src/main.c **** }
  69              		.loc 1 73 1 is_stmt 0 view .LVU6
  70 0040 38BD     		pop	{r3, r4, r5, pc}
  71              	.L4:
  72 0042 00BF     		.align	2
  73              	.L3:
  74 0044 00080240 		.word	1073874944
  75              		.cfi_endproc
  76              	.LFE252:
  78              		.section	.text.SetDutyRatio,"ax",%progbits
  79              		.align	1
  80              		.global	SetDutyRatio
  81              		.syntax unified
  82              		.thumb
  83              		.thumb_func
  85              	SetDutyRatio:
  86              	.LVL5:
  87              	.LFB253:
  74:Core/Src/main.c **** 
  75:Core/Src/main.c **** void SetDutyRatio(int16_t motR,int16_t motL,int16_t motF){
  88              		.loc 1 75 58 is_stmt 1 view -0
  89              		.cfi_startproc
  90              		@ args = 0, pretend = 0, frame = 0
  91              		@ frame_needed = 0, uses_anonymous_args = 0
  92              		@ link register save eliminated.
  93              		.loc 1 75 58 is_stmt 0 view .LVU8
  94 0000 10B4     		push	{r4}
  95              	.LCFI1:
  96              		.cfi_def_cfa_offset 4
  97              		.cfi_offset 4, -4
  76:Core/Src/main.c ****   if(motR > 0){
  98              		.loc 1 76 3 is_stmt 1 view .LVU9
ARM GAS  C:\Users\neko2\AppData\Local\Temp\ccWG4MHW.s 			page 4


  99              		.loc 1 76 5 is_stmt 0 view .LVU10
 100 0002 0028     		cmp	r0, #0
 101              	.LVL6:
 102              		.loc 1 76 5 view .LVU11
 103 0004 22DD     		ble	.L6
  77:Core/Src/main.c ****     if(motR > MTPERIOD) motR = MTPERIOD;
 104              		.loc 1 77 5 is_stmt 1 view .LVU12
 105              		.loc 1 77 7 is_stmt 0 view .LVU13
 106 0006 B0F5FA6F 		cmp	r0, #2000
 107 000a 01DD     		ble	.L7
 108              		.loc 1 77 30 view .LVU14
 109 000c 4FF4FA60 		mov	r0, #2000
 110              	.L7:
 111              	.LVL7:
  78:Core/Src/main.c ****     __HAL_TIM_SET_COMPARE(&htim1,TIM_CHANNEL_2,0);
 112              		.loc 1 78 5 is_stmt 1 view .LVU15
 113 0010 1C4B     		ldr	r3, .L21
 114 0012 1B68     		ldr	r3, [r3]
 115 0014 0024     		movs	r4, #0
 116 0016 9C63     		str	r4, [r3, #56]
  79:Core/Src/main.c ****     __HAL_TIM_SET_COMPARE(&htim1,TIM_CHANNEL_3,motR);
 117              		.loc 1 79 5 view .LVU16
 118 0018 D863     		str	r0, [r3, #60]
 119              	.LVL8:
 120              	.L8:
  80:Core/Src/main.c ****     
  81:Core/Src/main.c ****   }else{
  82:Core/Src/main.c ****     motR*=-1;
  83:Core/Src/main.c ****     if(motR > MTPERIOD) motR = MTPERIOD;
  84:Core/Src/main.c ****     __HAL_TIM_SET_COMPARE(&htim1,TIM_CHANNEL_2,motR);
  85:Core/Src/main.c ****     __HAL_TIM_SET_COMPARE(&htim1,TIM_CHANNEL_3,0);
  86:Core/Src/main.c ****     
  87:Core/Src/main.c ****   }
  88:Core/Src/main.c **** 
  89:Core/Src/main.c ****   if(motL > 0){
 121              		.loc 1 89 3 view .LVU17
 122              		.loc 1 89 5 is_stmt 0 view .LVU18
 123 001a 0029     		cmp	r1, #0
 124 001c 23DD     		ble	.L10
  90:Core/Src/main.c ****     if(motL > MTPERIOD) motL = MTPERIOD;
 125              		.loc 1 90 5 is_stmt 1 view .LVU19
 126              		.loc 1 90 7 is_stmt 0 view .LVU20
 127 001e B1F5FA6F 		cmp	r1, #2000
 128 0022 01DD     		ble	.L11
 129              		.loc 1 90 30 view .LVU21
 130 0024 4FF4FA61 		mov	r1, #2000
 131              	.LVL9:
 132              	.L11:
  91:Core/Src/main.c ****     __HAL_TIM_SET_COMPARE(&htim1,TIM_CHANNEL_1,motL);
 133              		.loc 1 91 5 is_stmt 1 view .LVU22
 134 0028 164B     		ldr	r3, .L21
 135 002a 1B68     		ldr	r3, [r3]
 136 002c 5963     		str	r1, [r3, #52]
  92:Core/Src/main.c ****     __HAL_TIM_SET_COMPARE(&htim2,TIM_CHANNEL_3,0);
 137              		.loc 1 92 5 view .LVU23
 138 002e 164B     		ldr	r3, .L21+4
 139 0030 1B68     		ldr	r3, [r3]
ARM GAS  C:\Users\neko2\AppData\Local\Temp\ccWG4MHW.s 			page 5


 140 0032 0021     		movs	r1, #0
 141              	.LVL10:
 142              		.loc 1 92 5 is_stmt 0 view .LVU24
 143 0034 D963     		str	r1, [r3, #60]
 144              	.L12:
  93:Core/Src/main.c ****   }else{
  94:Core/Src/main.c ****     motL*=-1;
  95:Core/Src/main.c ****     if(motL > MTPERIOD) motL = MTPERIOD;
  96:Core/Src/main.c ****     __HAL_TIM_SET_COMPARE(&htim1,TIM_CHANNEL_1,0);
  97:Core/Src/main.c ****     __HAL_TIM_SET_COMPARE(&htim2,TIM_CHANNEL_3,motL);
  98:Core/Src/main.c ****   }
  99:Core/Src/main.c **** 
 100:Core/Src/main.c ****   if(motF > MTPERIOD) motF = MTPERIOD;
 145              		.loc 1 100 3 is_stmt 1 view .LVU25
 146              		.loc 1 100 5 is_stmt 0 view .LVU26
 147 0036 B2F5FA6F 		cmp	r2, #2000
 148 003a 01DD     		ble	.L14
 149              		.loc 1 100 28 view .LVU27
 150 003c 4FF4FA62 		mov	r2, #2000
 151              	.LVL11:
 152              	.L14:
 101:Core/Src/main.c ****   __HAL_TIM_SET_COMPARE(&htim2,TIM_CHANNEL_1,motF);
 153              		.loc 1 101 3 is_stmt 1 view .LVU28
 154 0040 114B     		ldr	r3, .L21+4
 155 0042 1B68     		ldr	r3, [r3]
 156 0044 5A63     		str	r2, [r3, #52]
 102:Core/Src/main.c **** }
 157              		.loc 1 102 1 is_stmt 0 view .LVU29
 158 0046 5DF8044B 		ldr	r4, [sp], #4
 159              	.LCFI2:
 160              		.cfi_remember_state
 161              		.cfi_restore 4
 162              		.cfi_def_cfa_offset 0
 163 004a 7047     		bx	lr
 164              	.LVL12:
 165              	.L6:
 166              	.LCFI3:
 167              		.cfi_restore_state
  82:Core/Src/main.c ****     if(motR > MTPERIOD) motR = MTPERIOD;
 168              		.loc 1 82 5 is_stmt 1 view .LVU30
  82:Core/Src/main.c ****     if(motR > MTPERIOD) motR = MTPERIOD;
 169              		.loc 1 82 9 is_stmt 0 view .LVU31
 170 004c 4042     		rsbs	r0, r0, #0
 171 004e 00B2     		sxth	r0, r0
 172              	.LVL13:
  83:Core/Src/main.c ****     __HAL_TIM_SET_COMPARE(&htim1,TIM_CHANNEL_2,motR);
 173              		.loc 1 83 5 is_stmt 1 view .LVU32
  83:Core/Src/main.c ****     __HAL_TIM_SET_COMPARE(&htim1,TIM_CHANNEL_2,motR);
 174              		.loc 1 83 7 is_stmt 0 view .LVU33
 175 0050 B0F5FA6F 		cmp	r0, #2000
 176 0054 01DD     		ble	.L9
  83:Core/Src/main.c ****     __HAL_TIM_SET_COMPARE(&htim1,TIM_CHANNEL_2,motR);
 177              		.loc 1 83 30 view .LVU34
 178 0056 4FF4FA60 		mov	r0, #2000
 179              	.LVL14:
 180              	.L9:
  84:Core/Src/main.c ****     __HAL_TIM_SET_COMPARE(&htim1,TIM_CHANNEL_3,0);
ARM GAS  C:\Users\neko2\AppData\Local\Temp\ccWG4MHW.s 			page 6


 181              		.loc 1 84 5 is_stmt 1 view .LVU35
 182 005a 0A4B     		ldr	r3, .L21
 183 005c 1B68     		ldr	r3, [r3]
 184 005e 9863     		str	r0, [r3, #56]
  85:Core/Src/main.c ****     
 185              		.loc 1 85 5 view .LVU36
 186 0060 0020     		movs	r0, #0
 187              	.LVL15:
  85:Core/Src/main.c ****     
 188              		.loc 1 85 5 is_stmt 0 view .LVU37
 189 0062 D863     		str	r0, [r3, #60]
 190 0064 D9E7     		b	.L8
 191              	.L10:
  94:Core/Src/main.c ****     if(motL > MTPERIOD) motL = MTPERIOD;
 192              		.loc 1 94 5 is_stmt 1 view .LVU38
  94:Core/Src/main.c ****     if(motL > MTPERIOD) motL = MTPERIOD;
 193              		.loc 1 94 9 is_stmt 0 view .LVU39
 194 0066 4942     		rsbs	r1, r1, #0
 195              	.LVL16:
  94:Core/Src/main.c ****     if(motL > MTPERIOD) motL = MTPERIOD;
 196              		.loc 1 94 9 view .LVU40
 197 0068 09B2     		sxth	r1, r1
 198              	.LVL17:
  95:Core/Src/main.c ****     __HAL_TIM_SET_COMPARE(&htim1,TIM_CHANNEL_1,0);
 199              		.loc 1 95 5 is_stmt 1 view .LVU41
  95:Core/Src/main.c ****     __HAL_TIM_SET_COMPARE(&htim1,TIM_CHANNEL_1,0);
 200              		.loc 1 95 7 is_stmt 0 view .LVU42
 201 006a B1F5FA6F 		cmp	r1, #2000
 202 006e 01DD     		ble	.L13
  95:Core/Src/main.c ****     __HAL_TIM_SET_COMPARE(&htim1,TIM_CHANNEL_1,0);
 203              		.loc 1 95 30 view .LVU43
 204 0070 4FF4FA61 		mov	r1, #2000
 205              	.LVL18:
 206              	.L13:
  96:Core/Src/main.c ****     __HAL_TIM_SET_COMPARE(&htim2,TIM_CHANNEL_3,motL);
 207              		.loc 1 96 5 is_stmt 1 view .LVU44
 208 0074 034B     		ldr	r3, .L21
 209 0076 1B68     		ldr	r3, [r3]
 210 0078 0020     		movs	r0, #0
 211 007a 5863     		str	r0, [r3, #52]
  97:Core/Src/main.c ****   }
 212              		.loc 1 97 5 view .LVU45
 213 007c 024B     		ldr	r3, .L21+4
 214 007e 1B68     		ldr	r3, [r3]
 215 0080 D963     		str	r1, [r3, #60]
 216 0082 D8E7     		b	.L12
 217              	.L22:
 218              		.align	2
 219              	.L21:
 220 0084 00000000 		.word	htim1
 221 0088 00000000 		.word	htim2
 222              		.cfi_endproc
 223              	.LFE253:
 225              		.global	__aeabi_f2d
 226              		.global	__aeabi_dmul
 227              		.global	__aeabi_dadd
 228              		.global	__aeabi_d2f
ARM GAS  C:\Users\neko2\AppData\Local\Temp\ccWG4MHW.s 			page 7


 229              		.section	.text.GetSpeed,"ax",%progbits
 230              		.align	1
 231              		.global	GetSpeed
 232              		.syntax unified
 233              		.thumb
 234              		.thumb_func
 236              	GetSpeed:
 237              	.LFB254:
 103:Core/Src/main.c **** 
 104:Core/Src/main.c **** //Enc
 105:Core/Src/main.c **** AS5047P_Instance encR;
 106:Core/Src/main.c **** AS5047P_Instance encL;
 107:Core/Src/main.c **** //spd
 108:Core/Src/main.c **** float spd = 0;
 109:Core/Src/main.c **** int16_t b_encR_val=0,b_encL_val=0;
 110:Core/Src/main.c **** float spdR = 0,spdL=0;
 111:Core/Src/main.c **** float b_spdR = 0,b_spdL=0;
 112:Core/Src/main.c **** 
 113:Core/Src/main.c **** void GetSpeed(){
 238              		.loc 1 113 16 view -0
 239              		.cfi_startproc
 240              		@ args = 0, pretend = 0, frame = 0
 241              		@ frame_needed = 0, uses_anonymous_args = 0
 242 0000 2DE9F84F 		push	{r3, r4, r5, r6, r7, r8, r9, r10, fp, lr}
 243              	.LCFI4:
 244              		.cfi_def_cfa_offset 40
 245              		.cfi_offset 3, -40
 246              		.cfi_offset 4, -36
 247              		.cfi_offset 5, -32
 248              		.cfi_offset 6, -28
 249              		.cfi_offset 7, -24
 250              		.cfi_offset 8, -20
 251              		.cfi_offset 9, -16
 252              		.cfi_offset 10, -12
 253              		.cfi_offset 11, -8
 254              		.cfi_offset 14, -4
 255 0004 2DED028B 		vpush.64	{d8}
 256              	.LCFI5:
 257              		.cfi_def_cfa_offset 48
 258              		.cfi_offset 80, -48
 259              		.cfi_offset 81, -44
 114:Core/Src/main.c ****   //エンコーダから値取る
 115:Core/Src/main.c ****   int16_t encR_val,encL_val;
 260              		.loc 1 115 3 view .LVU47
 116:Core/Src/main.c ****   encR_val = AS5047P_ReadPosition(&encR, AS5047P_OPT_ENABLED);
 261              		.loc 1 116 3 view .LVU48
 262              		.loc 1 116 14 is_stmt 0 view .LVU49
 263 0008 754E     		ldr	r6, .L33+16
 264 000a 0121     		movs	r1, #1
 265 000c 3046     		mov	r0, r6
 266 000e FFF7FEFF 		bl	AS5047P_ReadPosition
 267              	.LVL19:
 268 0012 0546     		mov	r5, r0
 269              	.LVL20:
 117:Core/Src/main.c ****   encL_val = AS5047P_ReadPosition(&encL, AS5047P_OPT_ENABLED);
 270              		.loc 1 117 3 is_stmt 1 view .LVU50
 271              		.loc 1 117 14 is_stmt 0 view .LVU51
ARM GAS  C:\Users\neko2\AppData\Local\Temp\ccWG4MHW.s 			page 8


 272 0014 0121     		movs	r1, #1
 273 0016 7348     		ldr	r0, .L33+20
 274 0018 FFF7FEFF 		bl	AS5047P_ReadPosition
 275              	.LVL21:
 276 001c 0446     		mov	r4, r0
 277              	.LVL22:
 118:Core/Src/main.c **** 	if(AS5047P_ErrorPending(&encR)) AS5047P_ErrorAck(&encR);
 278              		.loc 1 118 2 is_stmt 1 view .LVU52
 279              		.loc 1 118 5 is_stmt 0 view .LVU53
 280 001e 3046     		mov	r0, r6
 281 0020 FFF7FEFF 		bl	AS5047P_ErrorPending
 282              	.LVL23:
 283              		.loc 1 118 4 view .LVU54
 284 0024 0028     		cmp	r0, #0
 285 0026 40F0AE80 		bne	.L31
 286              	.L24:
 119:Core/Src/main.c **** 	if(AS5047P_ErrorPending(&encL)) AS5047P_ErrorAck(&encL);
 287              		.loc 1 119 2 is_stmt 1 view .LVU55
 288              		.loc 1 119 5 is_stmt 0 view .LVU56
 289 002a 6E48     		ldr	r0, .L33+20
 290 002c FFF7FEFF 		bl	AS5047P_ErrorPending
 291              	.LVL24:
 292              		.loc 1 119 4 view .LVU57
 293 0030 0028     		cmp	r0, #0
 294 0032 40F0AC80 		bne	.L32
 295              	.L25:
 120:Core/Src/main.c **** 
 121:Core/Src/main.c ****   //差分取る
 122:Core/Src/main.c ****   int16_t d_encR_val = encR_val - b_encR_val;
 296              		.loc 1 122 3 is_stmt 1 view .LVU58
 297              		.loc 1 122 33 is_stmt 0 view .LVU59
 298 0036 1FFA85F9 		uxth	r9, r5
 299 003a 6B4B     		ldr	r3, .L33+24
 300 003c B3F90070 		ldrsh	r7, [r3]
 301 0040 B9B2     		uxth	r1, r7
 302 0042 A9EB0103 		sub	r3, r9, r1
 303 0046 1FFA83FC 		uxth	ip, r3
 304              		.loc 1 122 11 view .LVU60
 305 004a 1AB2     		sxth	r2, r3
 306              	.LVL25:
 123:Core/Src/main.c ****   int16_t d_encL_val = b_encL_val -  encL_val;
 307              		.loc 1 123 3 is_stmt 1 view .LVU61
 308              		.loc 1 123 35 is_stmt 0 view .LVU62
 309 004c 674B     		ldr	r3, .L33+28
 310 004e B3F90060 		ldrsh	r6, [r3]
 311 0052 1FFA86F8 		uxth	r8, r6
 312 0056 A0B2     		uxth	r0, r4
 313 0058 A8EB0003 		sub	r3, r8, r0
 314 005c 1FFA83FE 		uxth	lr, r3
 315              		.loc 1 123 11 view .LVU63
 316 0060 1BB2     		sxth	r3, r3
 317              	.LVL26:
 124:Core/Src/main.c ****   //16383→0
 125:Core/Src/main.c ****   if((d_encR_val > ENC_HALF || d_encR_val < -ENC_HALF) && b_encR_val > ENC_HALF){
 318              		.loc 1 125 3 is_stmt 1 view .LVU64
 319              		.loc 1 125 29 is_stmt 0 view .LVU65
 320 0062 0CF5005A 		add	r10, ip, #8192
ARM GAS  C:\Users\neko2\AppData\Local\Temp\ccWG4MHW.s 			page 9


 321 0066 1FFA8AFA 		uxth	r10, r10
 322              		.loc 1 125 5 view .LVU66
 323 006a BAF5804F 		cmp	r10, #16384
 324 006e 40F29280 		bls	.L26
 325              		.loc 1 125 56 discriminator 1 view .LVU67
 326 0072 B7F5005F 		cmp	r7, #8192
 327 0076 40F38E80 		ble	.L26
 126:Core/Src/main.c ****     d_encR_val = ((ENC_MAX - 1) - b_encR_val) + encR_val;
 328              		.loc 1 126 5 is_stmt 1 view .LVU68
 329              		.loc 1 126 47 is_stmt 0 view .LVU69
 330 007a 0CF57F52 		add	r2, ip, #16320
 331              	.LVL27:
 332              		.loc 1 126 47 view .LVU70
 333 007e 3F32     		adds	r2, r2, #63
 334              		.loc 1 126 16 view .LVU71
 335 0080 12B2     		sxth	r2, r2
 336              	.LVL28:
 337              	.L27:
 127:Core/Src/main.c ****   }
 128:Core/Src/main.c ****   //0→16383
 129:Core/Src/main.c ****   else if((d_encR_val > ENC_HALF || d_encR_val < -ENC_HALF) && b_encR_val <= ENC_HALF){
 130:Core/Src/main.c ****     d_encR_val = (b_encR_val + ((ENC_MAX -1)-encR_val));
 131:Core/Src/main.c ****   }
 132:Core/Src/main.c ****   //16383→0
 133:Core/Src/main.c ****   if((d_encL_val > ENC_HALF || d_encL_val < -ENC_HALF) && b_encL_val > ENC_HALF){
 338              		.loc 1 133 3 is_stmt 1 view .LVU72
 339              		.loc 1 133 29 is_stmt 0 view .LVU73
 340 0082 0EF50051 		add	r1, lr, #8192
 341 0086 89B2     		uxth	r1, r1
 342              		.loc 1 133 5 view .LVU74
 343 0088 B1F5804F 		cmp	r1, #16384
 344 008c 40F29280 		bls	.L28
 345              		.loc 1 133 56 discriminator 1 view .LVU75
 346 0090 B6F5005F 		cmp	r6, #8192
 347 0094 40F38E80 		ble	.L28
 134:Core/Src/main.c ****     d_encL_val = ((ENC_MAX - 1) - b_encL_val) + encL_val;
 348              		.loc 1 134 5 is_stmt 1 view .LVU76
 349              		.loc 1 134 47 is_stmt 0 view .LVU77
 350 0098 A0EB0803 		sub	r3, r0, r8
 351              	.LVL29:
 352              		.loc 1 134 47 view .LVU78
 353 009c 03F57F53 		add	r3, r3, #16320
 354 00a0 3F33     		adds	r3, r3, #63
 355              		.loc 1 134 16 view .LVU79
 356 00a2 1BB2     		sxth	r3, r3
 357              	.LVL30:
 358              	.L29:
 135:Core/Src/main.c ****   }
 136:Core/Src/main.c ****   //0→16383
 137:Core/Src/main.c ****   else if((d_encL_val > ENC_HALF || d_encL_val < -ENC_HALF) && b_encL_val <= ENC_HALF){
 138:Core/Src/main.c ****     d_encL_val = (b_encL_val + ((ENC_MAX -1)-encL_val));
 139:Core/Src/main.c ****   }
 140:Core/Src/main.c **** 
 141:Core/Src/main.c ****   float n_spdR = (float)d_encR_val * (float)PPMM;
 359              		.loc 1 141 3 is_stmt 1 view .LVU80
 360              		.loc 1 141 18 is_stmt 0 view .LVU81
 361 00a4 07EE902A 		vmov	s15, r2	@ int
ARM GAS  C:\Users\neko2\AppData\Local\Temp\ccWG4MHW.s 			page 10


 362 00a8 F8EEE77A 		vcvt.f32.s32	s15, s15
 363              		.loc 1 141 36 view .LVU82
 364 00ac DFED506A 		vldr.32	s13, .L33+32
 365 00b0 67EEA67A 		vmul.f32	s15, s15, s13
 366              		.loc 1 141 9 view .LVU83
 367 00b4 9FED4F7A 		vldr.32	s14, .L33+36
 368              	.LVL31:
 142:Core/Src/main.c ****   float n_spdL = (float)d_encL_val * (float)PPMM;
 369              		.loc 1 142 3 is_stmt 1 view .LVU84
 370              		.loc 1 142 18 is_stmt 0 view .LVU85
 371 00b8 06EE103A 		vmov	s12, r3	@ int
 372 00bc B8EEC68A 		vcvt.f32.s32	s16, s12
 373              		.loc 1 142 36 view .LVU86
 374 00c0 28EE268A 		vmul.f32	s16, s16, s13
 375              		.loc 1 142 9 view .LVU87
 376 00c4 28EE078A 		vmul.f32	s16, s16, s14
 377              	.LVL32:
 143:Core/Src/main.c ****   b_spdR = spdR;
 378              		.loc 1 143 3 is_stmt 1 view .LVU88
 379              		.loc 1 143 10 is_stmt 0 view .LVU89
 380 00c8 DFF838A1 		ldr	r10, .L33+52
 381 00cc DAF800B0 		ldr	fp, [r10]	@ float
 382 00d0 494B     		ldr	r3, .L33+40
 383              	.LVL33:
 384              		.loc 1 143 10 view .LVU90
 385 00d2 C3F800B0 		str	fp, [r3]	@ float
 144:Core/Src/main.c ****   b_spdL = spdL;
 386              		.loc 1 144 3 is_stmt 1 view .LVU91
 387              		.loc 1 144 10 is_stmt 0 view .LVU92
 388 00d6 DFF83081 		ldr	r8, .L33+56
 389 00da D8F80090 		ldr	r9, [r8]	@ float
 390 00de 474B     		ldr	r3, .L33+44
 391 00e0 C3F80090 		str	r9, [r3]	@ float
 145:Core/Src/main.c **** 
 146:Core/Src/main.c ****   //ローパスフィルタ
 147:Core/Src/main.c ****   spdR = n_spdR * 0.1 + b_spdR * 0.9;
 392              		.loc 1 147 3 is_stmt 1 view .LVU93
 393              		.loc 1 147 17 is_stmt 0 view .LVU94
 394 00e4 67EE877A 		vmul.f32	s15, s15, s14
 395              	.LVL34:
 396              		.loc 1 147 17 view .LVU95
 397 00e8 17EE900A 		vmov	r0, s15
 398 00ec FFF7FEFF 		bl	__aeabi_f2d
 399              	.LVL35:
 400              		.loc 1 147 17 view .LVU96
 401 00f0 37A3     		adr	r3, .L33
 402 00f2 D3E90023 		ldrd	r2, [r3]
 403 00f6 FFF7FEFF 		bl	__aeabi_dmul
 404              	.LVL36:
 405 00fa 0646     		mov	r6, r0
 406 00fc 0F46     		mov	r7, r1
 407              		.loc 1 147 32 view .LVU97
 408 00fe 5846     		mov	r0, fp	@ float
 409 0100 FFF7FEFF 		bl	__aeabi_f2d
 410              	.LVL37:
 411 0104 34A3     		adr	r3, .L33+8
 412 0106 D3E90023 		ldrd	r2, [r3]
ARM GAS  C:\Users\neko2\AppData\Local\Temp\ccWG4MHW.s 			page 11


 413 010a FFF7FEFF 		bl	__aeabi_dmul
 414              	.LVL38:
 415 010e 0246     		mov	r2, r0
 416 0110 0B46     		mov	r3, r1
 417              		.loc 1 147 23 view .LVU98
 418 0112 3046     		mov	r0, r6
 419 0114 3946     		mov	r1, r7
 420 0116 FFF7FEFF 		bl	__aeabi_dadd
 421              	.LVL39:
 422 011a FFF7FEFF 		bl	__aeabi_d2f
 423              	.LVL40:
 424 011e 08EE900A 		vmov	s17, r0
 425              		.loc 1 147 8 view .LVU99
 426 0122 CAF80000 		str	r0, [r10]	@ float
 148:Core/Src/main.c ****   spdL = n_spdL * 0.1 + b_spdL * 0.9;
 427              		.loc 1 148 3 is_stmt 1 view .LVU100
 428              		.loc 1 148 17 is_stmt 0 view .LVU101
 429 0126 18EE100A 		vmov	r0, s16
 430 012a FFF7FEFF 		bl	__aeabi_f2d
 431              	.LVL41:
 432 012e 28A3     		adr	r3, .L33
 433 0130 D3E90023 		ldrd	r2, [r3]
 434 0134 FFF7FEFF 		bl	__aeabi_dmul
 435              	.LVL42:
 436 0138 0646     		mov	r6, r0
 437 013a 0F46     		mov	r7, r1
 438              		.loc 1 148 32 view .LVU102
 439 013c 4846     		mov	r0, r9	@ float
 440 013e FFF7FEFF 		bl	__aeabi_f2d
 441              	.LVL43:
 442 0142 25A3     		adr	r3, .L33+8
 443 0144 D3E90023 		ldrd	r2, [r3]
 444 0148 FFF7FEFF 		bl	__aeabi_dmul
 445              	.LVL44:
 446 014c 0246     		mov	r2, r0
 447 014e 0B46     		mov	r3, r1
 448              		.loc 1 148 23 view .LVU103
 449 0150 3046     		mov	r0, r6
 450 0152 3946     		mov	r1, r7
 451 0154 FFF7FEFF 		bl	__aeabi_dadd
 452              	.LVL45:
 453 0158 FFF7FEFF 		bl	__aeabi_d2f
 454              	.LVL46:
 455 015c 07EE900A 		vmov	s15, r0
 456              		.loc 1 148 8 view .LVU104
 457 0160 C8F80000 		str	r0, [r8]	@ float
 149:Core/Src/main.c **** 
 150:Core/Src/main.c ****   spd = (spdR + spdL) / 2.0;  //
 458              		.loc 1 150 3 is_stmt 1 view .LVU105
 459              		.loc 1 150 15 is_stmt 0 view .LVU106
 460 0164 78EEA78A 		vadd.f32	s17, s17, s15
 461              		.loc 1 150 23 view .LVU107
 462 0168 F6EE007A 		vmov.f32	s15, #5.0e-1
 463 016c 68EEA78A 		vmul.f32	s17, s17, s15
 464              		.loc 1 150 7 view .LVU108
 465 0170 234B     		ldr	r3, .L33+48
 466 0172 C3ED008A 		vstr.32	s17, [r3]
ARM GAS  C:\Users\neko2\AppData\Local\Temp\ccWG4MHW.s 			page 12


 151:Core/Src/main.c ****   b_encR_val = encR_val;
 467              		.loc 1 151 3 is_stmt 1 view .LVU109
 468              		.loc 1 151 14 is_stmt 0 view .LVU110
 469 0176 1C4B     		ldr	r3, .L33+24
 470 0178 1D80     		strh	r5, [r3]	@ movhi
 152:Core/Src/main.c ****   b_encL_val = encL_val;
 471              		.loc 1 152 3 is_stmt 1 view .LVU111
 472              		.loc 1 152 14 is_stmt 0 view .LVU112
 473 017a 1C4B     		ldr	r3, .L33+28
 474 017c 1C80     		strh	r4, [r3]	@ movhi
 153:Core/Src/main.c **** }
 475              		.loc 1 153 1 view .LVU113
 476 017e BDEC028B 		vldm	sp!, {d8}
 477              	.LCFI6:
 478              		.cfi_remember_state
 479              		.cfi_restore 80
 480              		.cfi_restore 81
 481              		.cfi_def_cfa_offset 40
 482              	.LVL47:
 483              		.loc 1 153 1 view .LVU114
 484 0182 BDE8F88F 		pop	{r3, r4, r5, r6, r7, r8, r9, r10, fp, pc}
 485              	.LVL48:
 486              	.L31:
 487              	.LCFI7:
 488              		.cfi_restore_state
 118:Core/Src/main.c **** 	if(AS5047P_ErrorPending(&encL)) AS5047P_ErrorAck(&encL);
 489              		.loc 1 118 34 is_stmt 1 discriminator 1 view .LVU115
 490 0186 3046     		mov	r0, r6
 491 0188 FFF7FEFF 		bl	AS5047P_ErrorAck
 492              	.LVL49:
 493 018c 4DE7     		b	.L24
 494              	.L32:
 119:Core/Src/main.c **** 
 495              		.loc 1 119 34 discriminator 1 view .LVU116
 496 018e 1548     		ldr	r0, .L33+20
 497 0190 FFF7FEFF 		bl	AS5047P_ErrorAck
 498              	.LVL50:
 499 0194 4FE7     		b	.L25
 500              	.LVL51:
 501              	.L26:
 129:Core/Src/main.c ****     d_encR_val = (b_encR_val + ((ENC_MAX -1)-encR_val));
 502              		.loc 1 129 8 view .LVU117
 129:Core/Src/main.c ****     d_encR_val = (b_encR_val + ((ENC_MAX -1)-encR_val));
 503              		.loc 1 129 10 is_stmt 0 view .LVU118
 504 0196 BAF5804F 		cmp	r10, #16384
 505 019a 7FF672AF 		bls	.L27
 129:Core/Src/main.c ****     d_encR_val = (b_encR_val + ((ENC_MAX -1)-encR_val));
 506              		.loc 1 129 61 discriminator 1 view .LVU119
 507 019e B7F5005F 		cmp	r7, #8192
 508 01a2 3FF76EAF 		bgt	.L27
 130:Core/Src/main.c ****   }
 509              		.loc 1 130 5 is_stmt 1 view .LVU120
 130:Core/Src/main.c ****   }
 510              		.loc 1 130 30 is_stmt 0 view .LVU121
 511 01a6 A1EB0902 		sub	r2, r1, r9
 512              	.LVL52:
 130:Core/Src/main.c ****   }
ARM GAS  C:\Users\neko2\AppData\Local\Temp\ccWG4MHW.s 			page 13


 513              		.loc 1 130 30 view .LVU122
 514 01aa 02F57F52 		add	r2, r2, #16320
 515 01ae 3F32     		adds	r2, r2, #63
 130:Core/Src/main.c ****   }
 516              		.loc 1 130 16 view .LVU123
 517 01b0 12B2     		sxth	r2, r2
 518              	.LVL53:
 130:Core/Src/main.c ****   }
 519              		.loc 1 130 16 view .LVU124
 520 01b2 66E7     		b	.L27
 521              	.L28:
 137:Core/Src/main.c ****     d_encL_val = (b_encL_val + ((ENC_MAX -1)-encL_val));
 522              		.loc 1 137 8 is_stmt 1 view .LVU125
 137:Core/Src/main.c ****     d_encL_val = (b_encL_val + ((ENC_MAX -1)-encL_val));
 523              		.loc 1 137 10 is_stmt 0 view .LVU126
 524 01b4 B1F5804F 		cmp	r1, #16384
 525 01b8 7FF674AF 		bls	.L29
 137:Core/Src/main.c ****     d_encL_val = (b_encL_val + ((ENC_MAX -1)-encL_val));
 526              		.loc 1 137 61 discriminator 1 view .LVU127
 527 01bc B6F5005F 		cmp	r6, #8192
 528 01c0 3FF770AF 		bgt	.L29
 138:Core/Src/main.c ****   }
 529              		.loc 1 138 5 is_stmt 1 view .LVU128
 138:Core/Src/main.c ****   }
 530              		.loc 1 138 30 is_stmt 0 view .LVU129
 531 01c4 0EF57F53 		add	r3, lr, #16320
 532              	.LVL54:
 138:Core/Src/main.c ****   }
 533              		.loc 1 138 30 view .LVU130
 534 01c8 3F33     		adds	r3, r3, #63
 138:Core/Src/main.c ****   }
 535              		.loc 1 138 16 view .LVU131
 536 01ca 1BB2     		sxth	r3, r3
 537              	.LVL55:
 138:Core/Src/main.c ****   }
 538              		.loc 1 138 16 view .LVU132
 539 01cc 6AE7     		b	.L29
 540              	.L34:
 541 01ce 00BF     		.align	3
 542              	.L33:
 543 01d0 9A999999 		.word	-1717986918
 544 01d4 9999B93F 		.word	1069128089
 545 01d8 CDCCCCCC 		.word	-858993459
 546 01dc CCCCEC3F 		.word	1072483532
 547 01e0 00000000 		.word	.LANCHOR0
 548 01e4 00000000 		.word	.LANCHOR1
 549 01e8 00000000 		.word	.LANCHOR2
 550 01ec 00000000 		.word	.LANCHOR3
 551 01f0 63141D42 		.word	1109202019
 552 01f4 00008038 		.word	947912704
 553 01f8 00000000 		.word	.LANCHOR5
 554 01fc 00000000 		.word	.LANCHOR7
 555 0200 00000000 		.word	.LANCHOR8
 556 0204 00000000 		.word	.LANCHOR4
 557 0208 00000000 		.word	.LANCHOR6
 558              		.cfi_endproc
 559              	.LFE254:
ARM GAS  C:\Users\neko2\AppData\Local\Temp\ccWG4MHW.s 			page 14


 561              		.section	.text.GetWallSens,"ax",%progbits
 562              		.align	1
 563              		.global	GetWallSens
 564              		.syntax unified
 565              		.thumb
 566              		.thumb_func
 568              	GetWallSens:
 569              	.LFB255:
 154:Core/Src/main.c **** 
 155:Core/Src/main.c **** //0→FR,L 1→FL,R
 156:Core/Src/main.c **** uint8_t senstype = 0;
 157:Core/Src/main.c **** //DMAの送信(L,FL,FR,R,VBAT/2)
 158:Core/Src/main.c **** uint16_t adcval[5];
 159:Core/Src/main.c **** uint16_t sensval[4];
 160:Core/Src/main.c **** uint16_t offval[4];
 161:Core/Src/main.c **** 
 162:Core/Src/main.c **** void GetWallSens(){
 570              		.loc 1 162 19 is_stmt 1 view -0
 571              		.cfi_startproc
 572              		@ args = 0, pretend = 0, frame = 0
 573              		@ frame_needed = 0, uses_anonymous_args = 0
 574 0000 10B5     		push	{r4, lr}
 575              	.LCFI8:
 576              		.cfi_def_cfa_offset 8
 577              		.cfi_offset 4, -8
 578              		.cfi_offset 14, -4
 163:Core/Src/main.c ****   if(senstype){
 579              		.loc 1 163 3 view .LVU134
 580              		.loc 1 163 6 is_stmt 0 view .LVU135
 581 0002 164B     		ldr	r3, .L39
 582 0004 1B78     		ldrb	r3, [r3]	@ zero_extendqisi2
 583              		.loc 1 163 5 view .LVU136
 584 0006 B3B1     		cbz	r3, .L36
 164:Core/Src/main.c ****     sensval[0] = adcval[0];
 585              		.loc 1 164 5 is_stmt 1 view .LVU137
 586              		.loc 1 164 24 is_stmt 0 view .LVU138
 587 0008 154A     		ldr	r2, .L39+4
 588 000a 1188     		ldrh	r1, [r2]
 589              		.loc 1 164 16 view .LVU139
 590 000c 154B     		ldr	r3, .L39+8
 591 000e 1980     		strh	r1, [r3]	@ movhi
 165:Core/Src/main.c ****     sensval[2] = adcval[2];
 592              		.loc 1 165 5 is_stmt 1 view .LVU140
 593              		.loc 1 165 24 is_stmt 0 view .LVU141
 594 0010 9288     		ldrh	r2, [r2, #4]
 595              		.loc 1 165 16 view .LVU142
 596 0012 9A80     		strh	r2, [r3, #4]	@ movhi
 166:Core/Src/main.c ****     HAL_GPIO_WritePin(GPIOB,GPIO_PIN_4,0);
 597              		.loc 1 166 5 is_stmt 1 view .LVU143
 598 0014 144C     		ldr	r4, .L39+12
 599 0016 0022     		movs	r2, #0
 600 0018 1021     		movs	r1, #16
 601 001a 2046     		mov	r0, r4
 602 001c FFF7FEFF 		bl	HAL_GPIO_WritePin
 603              	.LVL56:
 167:Core/Src/main.c ****     HAL_GPIO_WritePin(GPIOB,GPIO_PIN_5,1);
 604              		.loc 1 167 5 view .LVU144
ARM GAS  C:\Users\neko2\AppData\Local\Temp\ccWG4MHW.s 			page 15


 605 0020 0122     		movs	r2, #1
 606 0022 2021     		movs	r1, #32
 607 0024 2046     		mov	r0, r4
 608 0026 FFF7FEFF 		bl	HAL_GPIO_WritePin
 609              	.LVL57:
 610              	.L37:
 168:Core/Src/main.c ****   }else{
 169:Core/Src/main.c ****     sensval[1] = adcval[1];
 170:Core/Src/main.c ****     sensval[3] = adcval[3];
 171:Core/Src/main.c ****     HAL_GPIO_WritePin(GPIOB,GPIO_PIN_4,1);
 172:Core/Src/main.c ****     HAL_GPIO_WritePin(GPIOB,GPIO_PIN_5,0);
 173:Core/Src/main.c ****   }
 174:Core/Src/main.c ****     senstype = 1-senstype;
 611              		.loc 1 174 5 view .LVU145
 612              		.loc 1 174 17 is_stmt 0 view .LVU146
 613 002a 0C4A     		ldr	r2, .L39
 614 002c 1378     		ldrb	r3, [r2]	@ zero_extendqisi2
 615 002e C3F10103 		rsb	r3, r3, #1
 616              		.loc 1 174 14 view .LVU147
 617 0032 1370     		strb	r3, [r2]
 175:Core/Src/main.c **** }
 618              		.loc 1 175 1 view .LVU148
 619 0034 10BD     		pop	{r4, pc}
 620              	.L36:
 169:Core/Src/main.c ****     sensval[3] = adcval[3];
 621              		.loc 1 169 5 is_stmt 1 view .LVU149
 169:Core/Src/main.c ****     sensval[3] = adcval[3];
 622              		.loc 1 169 24 is_stmt 0 view .LVU150
 623 0036 0A4A     		ldr	r2, .L39+4
 624 0038 5188     		ldrh	r1, [r2, #2]
 169:Core/Src/main.c ****     sensval[3] = adcval[3];
 625              		.loc 1 169 16 view .LVU151
 626 003a 0A4B     		ldr	r3, .L39+8
 627 003c 5980     		strh	r1, [r3, #2]	@ movhi
 170:Core/Src/main.c ****     HAL_GPIO_WritePin(GPIOB,GPIO_PIN_4,1);
 628              		.loc 1 170 5 is_stmt 1 view .LVU152
 170:Core/Src/main.c ****     HAL_GPIO_WritePin(GPIOB,GPIO_PIN_4,1);
 629              		.loc 1 170 24 is_stmt 0 view .LVU153
 630 003e D288     		ldrh	r2, [r2, #6]
 170:Core/Src/main.c ****     HAL_GPIO_WritePin(GPIOB,GPIO_PIN_4,1);
 631              		.loc 1 170 16 view .LVU154
 632 0040 DA80     		strh	r2, [r3, #6]	@ movhi
 171:Core/Src/main.c ****     HAL_GPIO_WritePin(GPIOB,GPIO_PIN_5,0);
 633              		.loc 1 171 5 is_stmt 1 view .LVU155
 634 0042 094C     		ldr	r4, .L39+12
 635 0044 0122     		movs	r2, #1
 636 0046 1021     		movs	r1, #16
 637 0048 2046     		mov	r0, r4
 638 004a FFF7FEFF 		bl	HAL_GPIO_WritePin
 639              	.LVL58:
 172:Core/Src/main.c ****   }
 640              		.loc 1 172 5 view .LVU156
 641 004e 0022     		movs	r2, #0
 642 0050 2021     		movs	r1, #32
 643 0052 2046     		mov	r0, r4
 644 0054 FFF7FEFF 		bl	HAL_GPIO_WritePin
 645              	.LVL59:
ARM GAS  C:\Users\neko2\AppData\Local\Temp\ccWG4MHW.s 			page 16


 646 0058 E7E7     		b	.L37
 647              	.L40:
 648 005a 00BF     		.align	2
 649              	.L39:
 650 005c 00000000 		.word	.LANCHOR9
 651 0060 00000000 		.word	.LANCHOR10
 652 0064 00000000 		.word	.LANCHOR11
 653 0068 00040240 		.word	1073873920
 654              		.cfi_endproc
 655              	.LFE255:
 657              		.global	__aeabi_i2d
 658              		.section	.text.GetBattVoltage,"ax",%progbits
 659              		.align	1
 660              		.global	GetBattVoltage
 661              		.syntax unified
 662              		.thumb
 663              		.thumb_func
 665              	GetBattVoltage:
 666              	.LFB256:
 176:Core/Src/main.c **** 
 177:Core/Src/main.c **** float vbat = 0; //バッテリ電圧[v]
 178:Core/Src/main.c **** void GetBattVoltage(){
 667              		.loc 1 178 22 view -0
 668              		.cfi_startproc
 669              		@ args = 0, pretend = 0, frame = 0
 670              		@ frame_needed = 0, uses_anonymous_args = 0
 671 0000 08B5     		push	{r3, lr}
 672              	.LCFI9:
 673              		.cfi_def_cfa_offset 8
 674              		.cfi_offset 3, -8
 675              		.cfi_offset 14, -4
 179:Core/Src/main.c ****   vbat = 3.3 * (adcval[4] / 4096.0) * 2;
 676              		.loc 1 179 3 view .LVU158
 677              		.loc 1 179 27 is_stmt 0 view .LVU159
 678 0002 0D4B     		ldr	r3, .L43+8
 679 0004 1889     		ldrh	r0, [r3, #8]
 680 0006 FFF7FEFF 		bl	__aeabi_i2d
 681              	.LVL60:
 682 000a 0022     		movs	r2, #0
 683 000c 0B4B     		ldr	r3, .L43+12
 684 000e FFF7FEFF 		bl	__aeabi_dmul
 685              	.LVL61:
 686              		.loc 1 179 14 view .LVU160
 687 0012 07A3     		adr	r3, .L43
 688 0014 D3E90023 		ldrd	r2, [r3]
 689 0018 FFF7FEFF 		bl	__aeabi_dmul
 690              	.LVL62:
 691 001c 0246     		mov	r2, r0
 692 001e 0B46     		mov	r3, r1
 693              		.loc 1 179 37 view .LVU161
 694 0020 FFF7FEFF 		bl	__aeabi_dadd
 695              	.LVL63:
 696 0024 FFF7FEFF 		bl	__aeabi_d2f
 697              	.LVL64:
 698              		.loc 1 179 8 view .LVU162
 699 0028 054B     		ldr	r3, .L43+16
 700 002a 1860     		str	r0, [r3]	@ float
ARM GAS  C:\Users\neko2\AppData\Local\Temp\ccWG4MHW.s 			page 17


 180:Core/Src/main.c ****   vbat *= VBATREF;
 701              		.loc 1 180 3 is_stmt 1 view .LVU163
 181:Core/Src/main.c **** }
 702              		.loc 1 181 1 is_stmt 0 view .LVU164
 703 002c 08BD     		pop	{r3, pc}
 704              	.L44:
 705 002e 00BF     		.align	3
 706              	.L43:
 707 0030 66666666 		.word	1717986918
 708 0034 66660A40 		.word	1074423398
 709 0038 00000000 		.word	.LANCHOR10
 710 003c 0000303F 		.word	1060110336
 711 0040 00000000 		.word	.LANCHOR12
 712              		.cfi_endproc
 713              	.LFE256:
 715              		.global	__aeabi_ddiv
 716              		.section	.text.GetYawDeg,"ax",%progbits
 717              		.align	1
 718              		.global	GetYawDeg
 719              		.syntax unified
 720              		.thumb
 721              		.thumb_func
 723              	GetYawDeg:
 724              	.LFB257:
 182:Core/Src/main.c **** 
 183:Core/Src/main.c **** float deg = 0;
 184:Core/Src/main.c **** float angvel = 0,b_angvel = 0;
 185:Core/Src/main.c **** float r_yaw = 0,r_yaw_new = 0,r_yaw_ref = 0,r_b_yaw;
 186:Core/Src/main.c **** 
 187:Core/Src/main.c **** void GetYawDeg(){
 725              		.loc 1 187 17 is_stmt 1 view -0
 726              		.cfi_startproc
 727              		@ args = 0, pretend = 0, frame = 0
 728              		@ frame_needed = 0, uses_anonymous_args = 0
 729 0000 F8B5     		push	{r3, r4, r5, r6, r7, lr}
 730              	.LCFI10:
 731              		.cfi_def_cfa_offset 24
 732              		.cfi_offset 3, -24
 733              		.cfi_offset 4, -20
 734              		.cfi_offset 5, -16
 735              		.cfi_offset 6, -12
 736              		.cfi_offset 7, -8
 737              		.cfi_offset 14, -4
 188:Core/Src/main.c ****   read_gyro_data();
 738              		.loc 1 188 3 view .LVU166
 739 0002 FFF7FEFF 		bl	read_gyro_data
 740              	.LVL65:
 189:Core/Src/main.c **** 
 190:Core/Src/main.c ****   //LowPass Filter
 191:Core/Src/main.c **** 	r_yaw_new = (float)zg - r_yaw_ref;
 741              		.loc 1 191 2 view .LVU167
 742              		.loc 1 191 14 is_stmt 0 view .LVU168
 743 0006 3A4B     		ldr	r3, .L47+32
 744 0008 1B88     		ldrh	r3, [r3]
 745 000a 1BB2     		sxth	r3, r3
 746 000c 07EE903A 		vmov	s15, r3	@ int
 747 0010 F8EEE77A 		vcvt.f32.s32	s15, s15
ARM GAS  C:\Users\neko2\AppData\Local\Temp\ccWG4MHW.s 			page 18


 748              		.loc 1 191 24 view .LVU169
 749 0014 374B     		ldr	r3, .L47+36
 750 0016 93ED007A 		vldr.32	s14, [r3]
 751 001a 77EEC77A 		vsub.f32	s15, s15, s14
 752              		.loc 1 191 12 view .LVU170
 753 001e 364B     		ldr	r3, .L47+40
 754 0020 C3ED007A 		vstr.32	s15, [r3]
 192:Core/Src/main.c ****   r_b_yaw = r_yaw;
 755              		.loc 1 192 3 is_stmt 1 view .LVU171
 756              		.loc 1 192 11 is_stmt 0 view .LVU172
 757 0024 354E     		ldr	r6, .L47+44
 758 0026 3768     		ldr	r7, [r6]	@ float
 759 0028 354B     		ldr	r3, .L47+48
 760 002a 1F60     		str	r7, [r3]	@ float
 193:Core/Src/main.c ****   r_yaw = r_yaw_new * 0.4 + r_b_yaw * 0.6;
 761              		.loc 1 193 3 is_stmt 1 view .LVU173
 762              		.loc 1 193 21 is_stmt 0 view .LVU174
 763 002c 17EE900A 		vmov	r0, s15
 764 0030 FFF7FEFF 		bl	__aeabi_f2d
 765              	.LVL66:
 766 0034 26A3     		adr	r3, .L47
 767 0036 D3E90023 		ldrd	r2, [r3]
 768 003a FFF7FEFF 		bl	__aeabi_dmul
 769              	.LVL67:
 770 003e 0446     		mov	r4, r0
 771 0040 0D46     		mov	r5, r1
 772              		.loc 1 193 37 view .LVU175
 773 0042 3846     		mov	r0, r7	@ float
 774 0044 FFF7FEFF 		bl	__aeabi_f2d
 775              	.LVL68:
 776 0048 23A3     		adr	r3, .L47+8
 777 004a D3E90023 		ldrd	r2, [r3]
 778 004e FFF7FEFF 		bl	__aeabi_dmul
 779              	.LVL69:
 780 0052 0246     		mov	r2, r0
 781 0054 0B46     		mov	r3, r1
 782              		.loc 1 193 27 view .LVU176
 783 0056 2046     		mov	r0, r4
 784 0058 2946     		mov	r1, r5
 785 005a FFF7FEFF 		bl	__aeabi_dadd
 786              	.LVL70:
 787 005e FFF7FEFF 		bl	__aeabi_d2f
 788              	.LVL71:
 789              		.loc 1 193 9 view .LVU177
 790 0062 3060     		str	r0, [r6]	@ float
 194:Core/Src/main.c ****   //r_yaw_new = (float)((short)zg & 0x0000FFFF);
 195:Core/Src/main.c ****   //r_yaw = r_yaw_new - r_yaw_ref;
 196:Core/Src/main.c **** 	//角速度の更新
 197:Core/Src/main.c **** 	b_angvel = angvel;
 791              		.loc 1 197 2 is_stmt 1 view .LVU178
 792              		.loc 1 197 11 is_stmt 0 view .LVU179
 793 0064 274E     		ldr	r6, .L47+52
 794 0066 3268     		ldr	r2, [r6]	@ float
 795 0068 274B     		ldr	r3, .L47+56
 796 006a 1A60     		str	r2, [r3]	@ float
 198:Core/Src/main.c **** 	angvel = (2000.0*r_yaw/32767.0)*PI/180.0;
 797              		.loc 1 198 2 is_stmt 1 view .LVU180
ARM GAS  C:\Users\neko2\AppData\Local\Temp\ccWG4MHW.s 			page 19


 798              		.loc 1 198 18 is_stmt 0 view .LVU181
 799 006c FFF7FEFF 		bl	__aeabi_f2d
 800              	.LVL72:
 801 0070 0446     		mov	r4, r0
 802 0072 0D46     		mov	r5, r1
 803 0074 0022     		movs	r2, #0
 804 0076 254B     		ldr	r3, .L47+60
 805 0078 FFF7FEFF 		bl	__aeabi_dmul
 806              	.LVL73:
 807              		.loc 1 198 24 view .LVU182
 808 007c 18A3     		adr	r3, .L47+16
 809 007e D3E90023 		ldrd	r2, [r3]
 810 0082 FFF7FEFF 		bl	__aeabi_ddiv
 811              	.LVL74:
 812              		.loc 1 198 33 view .LVU183
 813 0086 18A3     		adr	r3, .L47+24
 814 0088 D3E90023 		ldrd	r2, [r3]
 815 008c FFF7FEFF 		bl	__aeabi_dmul
 816              	.LVL75:
 817              		.loc 1 198 36 view .LVU184
 818 0090 0022     		movs	r2, #0
 819 0092 1F4B     		ldr	r3, .L47+64
 820 0094 FFF7FEFF 		bl	__aeabi_ddiv
 821              	.LVL76:
 822 0098 FFF7FEFF 		bl	__aeabi_d2f
 823              	.LVL77:
 824              		.loc 1 198 9 view .LVU185
 825 009c 3060     		str	r0, [r6]	@ float
 199:Core/Src/main.c **** 		
 200:Core/Src/main.c **** 	//ジャイロの値を角度に変換
 201:Core/Src/main.c **** 	deg += 2.0*r_yaw/32767.0;
 826              		.loc 1 201 2 is_stmt 1 view .LVU186
 827              		.loc 1 201 12 is_stmt 0 view .LVU187
 828 009e 2246     		mov	r2, r4
 829 00a0 2B46     		mov	r3, r5
 830 00a2 2046     		mov	r0, r4
 831 00a4 2946     		mov	r1, r5
 832 00a6 FFF7FEFF 		bl	__aeabi_dadd
 833              	.LVL78:
 834              		.loc 1 201 18 view .LVU188
 835 00aa 0DA3     		adr	r3, .L47+16
 836 00ac D3E90023 		ldrd	r2, [r3]
 837 00b0 FFF7FEFF 		bl	__aeabi_ddiv
 838              	.LVL79:
 839 00b4 0446     		mov	r4, r0
 840 00b6 0D46     		mov	r5, r1
 841              		.loc 1 201 6 view .LVU189
 842 00b8 164E     		ldr	r6, .L47+68
 843 00ba 3068     		ldr	r0, [r6]	@ float
 844 00bc FFF7FEFF 		bl	__aeabi_f2d
 845              	.LVL80:
 846 00c0 2246     		mov	r2, r4
 847 00c2 2B46     		mov	r3, r5
 848 00c4 FFF7FEFF 		bl	__aeabi_dadd
 849              	.LVL81:
 850 00c8 FFF7FEFF 		bl	__aeabi_d2f
 851              	.LVL82:
ARM GAS  C:\Users\neko2\AppData\Local\Temp\ccWG4MHW.s 			page 20


 852 00cc 3060     		str	r0, [r6]	@ float
 202:Core/Src/main.c **** }
 853              		.loc 1 202 1 view .LVU190
 854 00ce F8BD     		pop	{r3, r4, r5, r6, r7, pc}
 855              	.L48:
 856              		.align	3
 857              	.L47:
 858 00d0 9A999999 		.word	-1717986918
 859 00d4 9999D93F 		.word	1071225241
 860 00d8 33333333 		.word	858993459
 861 00dc 3333E33F 		.word	1071854387
 862 00e0 00000000 		.word	0
 863 00e4 C0FFDF40 		.word	1088421824
 864 00e8 00000060 		.word	1610612736
 865 00ec FB210940 		.word	1074340347
 866 00f0 00000000 		.word	zg
 867 00f4 00000000 		.word	.LANCHOR13
 868 00f8 00000000 		.word	.LANCHOR14
 869 00fc 00000000 		.word	.LANCHOR15
 870 0100 00000000 		.word	.LANCHOR16
 871 0104 00000000 		.word	.LANCHOR18
 872 0108 00000000 		.word	.LANCHOR17
 873 010c 00409F40 		.word	1084178432
 874 0110 00806640 		.word	1080459264
 875 0114 00000000 		.word	.LANCHOR19
 876              		.cfi_endproc
 877              	.LFE257:
 879              		.section	.text.HAL_TIM_PeriodElapsedCallback,"ax",%progbits
 880              		.align	1
 881              		.global	HAL_TIM_PeriodElapsedCallback
 882              		.syntax unified
 883              		.thumb
 884              		.thumb_func
 886              	HAL_TIM_PeriodElapsedCallback:
 887              	.LVL83:
 888              	.LFB258:
 203:Core/Src/main.c **** 
 204:Core/Src/main.c **** void HAL_TIM_PeriodElapsedCallback(TIM_HandleTypeDef *htim){
 889              		.loc 1 204 60 is_stmt 1 view -0
 890              		.cfi_startproc
 891              		@ args = 0, pretend = 0, frame = 0
 892              		@ frame_needed = 0, uses_anonymous_args = 0
 893              		.loc 1 204 60 is_stmt 0 view .LVU192
 894 0000 08B5     		push	{r3, lr}
 895              	.LCFI11:
 896              		.cfi_def_cfa_offset 8
 897              		.cfi_offset 3, -8
 898              		.cfi_offset 14, -4
 205:Core/Src/main.c ****   if(htim == &htim6){
 899              		.loc 1 205 3 is_stmt 1 view .LVU193
 900              		.loc 1 205 5 is_stmt 0 view .LVU194
 901 0002 064B     		ldr	r3, .L53
 902 0004 8342     		cmp	r3, r0
 903 0006 00D0     		beq	.L52
 904              	.LVL84:
 905              	.L49:
 206:Core/Src/main.c ****     //1kHz
ARM GAS  C:\Users\neko2\AppData\Local\Temp\ccWG4MHW.s 			page 21


 207:Core/Src/main.c ****     GetWallSens();
 208:Core/Src/main.c ****     GetSpeed();
 209:Core/Src/main.c ****     GetYawDeg();
 210:Core/Src/main.c ****     GetBattVoltage();
 211:Core/Src/main.c ****   }
 212:Core/Src/main.c **** }
 906              		.loc 1 212 1 view .LVU195
 907 0008 08BD     		pop	{r3, pc}
 908              	.LVL85:
 909              	.L52:
 207:Core/Src/main.c ****     GetSpeed();
 910              		.loc 1 207 5 is_stmt 1 view .LVU196
 911 000a FFF7FEFF 		bl	GetWallSens
 912              	.LVL86:
 208:Core/Src/main.c ****     GetYawDeg();
 913              		.loc 1 208 5 view .LVU197
 914 000e FFF7FEFF 		bl	GetSpeed
 915              	.LVL87:
 209:Core/Src/main.c ****     GetBattVoltage();
 916              		.loc 1 209 5 view .LVU198
 917 0012 FFF7FEFF 		bl	GetYawDeg
 918              	.LVL88:
 210:Core/Src/main.c ****   }
 919              		.loc 1 210 5 view .LVU199
 920 0016 FFF7FEFF 		bl	GetBattVoltage
 921              	.LVL89:
 922              		.loc 1 212 1 is_stmt 0 view .LVU200
 923 001a F5E7     		b	.L49
 924              	.L54:
 925              		.align	2
 926              	.L53:
 927 001c 00000000 		.word	htim6
 928              		.cfi_endproc
 929              	.LFE258:
 931              		.section	.rodata.DoPanic.str1.4,"aMS",%progbits,1
 932              		.align	2
 933              	.LC0:
 934 0000 536F6979 		.ascii	"Soiya!!\015\000"
 934      6121210D 
 934      00
 935              		.section	.text.DoPanic,"ax",%progbits
 936              		.align	1
 937              		.global	DoPanic
 938              		.syntax unified
 939              		.thumb
 940              		.thumb_func
 942              	DoPanic:
 943              	.LFB259:
 213:Core/Src/main.c **** 
 214:Core/Src/main.c **** void DoPanic(){
 944              		.loc 1 214 15 is_stmt 1 view -0
 945              		.cfi_startproc
 946              		@ args = 0, pretend = 0, frame = 0
 947              		@ frame_needed = 0, uses_anonymous_args = 0
 948 0000 10B5     		push	{r4, lr}
 949              	.LCFI12:
 950              		.cfi_def_cfa_offset 8
ARM GAS  C:\Users\neko2\AppData\Local\Temp\ccWG4MHW.s 			page 22


 951              		.cfi_offset 4, -8
 952              		.cfi_offset 14, -4
 215:Core/Src/main.c ****   uint8_t l_sig = 0b111;
 953              		.loc 1 215 3 view .LVU202
 954              	.LVL90:
 216:Core/Src/main.c ****   SetLED(l_sig);
 955              		.loc 1 216 3 view .LVU203
 956 0002 0720     		movs	r0, #7
 957 0004 FFF7FEFF 		bl	SetLED
 958              	.LVL91:
 217:Core/Src/main.c ****   SetDutyRatio(0,0,0);
 959              		.loc 1 217 3 view .LVU204
 960 0008 0022     		movs	r2, #0
 961 000a 1146     		mov	r1, r2
 962 000c 1046     		mov	r0, r2
 963 000e FFF7FEFF 		bl	SetDutyRatio
 964              	.LVL92:
 218:Core/Src/main.c ****   HAL_TIM_Base_Stop_IT(&htim6);
 965              		.loc 1 218 3 view .LVU205
 966 0012 0D48     		ldr	r0, .L58
 967 0014 FFF7FEFF 		bl	HAL_TIM_Base_Stop_IT
 968              	.LVL93:
 219:Core/Src/main.c ****   HAL_GPIO_WritePin(GPIOB,GPIO_PIN_4,0);
 969              		.loc 1 219 3 view .LVU206
 970 0018 0C4C     		ldr	r4, .L58+4
 971 001a 0022     		movs	r2, #0
 972 001c 1021     		movs	r1, #16
 973 001e 2046     		mov	r0, r4
 974 0020 FFF7FEFF 		bl	HAL_GPIO_WritePin
 975              	.LVL94:
 220:Core/Src/main.c ****   HAL_GPIO_WritePin(GPIOB,GPIO_PIN_5,0);
 976              		.loc 1 220 3 view .LVU207
 977 0024 0022     		movs	r2, #0
 978 0026 2021     		movs	r1, #32
 979 0028 2046     		mov	r0, r4
 980 002a FFF7FEFF 		bl	HAL_GPIO_WritePin
 981              	.LVL95:
 221:Core/Src/main.c ****   printf("Soiya!!\r\n");
 982              		.loc 1 221 3 view .LVU208
 983 002e 0848     		ldr	r0, .L58+8
 984 0030 FFF7FEFF 		bl	puts
 985              	.LVL96:
 215:Core/Src/main.c ****   SetLED(l_sig);
 986              		.loc 1 215 11 is_stmt 0 view .LVU209
 987 0034 0724     		movs	r4, #7
 988              	.LVL97:
 989              	.L56:
 222:Core/Src/main.c ****   while(1){
 990              		.loc 1 222 3 is_stmt 1 discriminator 1 view .LVU210
 223:Core/Src/main.c ****     l_sig = ~l_sig;
 991              		.loc 1 223 5 discriminator 1 view .LVU211
 992              		.loc 1 223 11 is_stmt 0 discriminator 1 view .LVU212
 993 0036 E443     		mvns	r4, r4
 994              	.LVL98:
 995              		.loc 1 223 11 discriminator 1 view .LVU213
 996 0038 E4B2     		uxtb	r4, r4
 997              	.LVL99:
ARM GAS  C:\Users\neko2\AppData\Local\Temp\ccWG4MHW.s 			page 23


 224:Core/Src/main.c ****     SetLED(l_sig);
 998              		.loc 1 224 5 is_stmt 1 discriminator 1 view .LVU214
 999 003a 2046     		mov	r0, r4
 1000 003c FFF7FEFF 		bl	SetLED
 1001              	.LVL100:
 225:Core/Src/main.c ****     HAL_Delay(100);
 1002              		.loc 1 225 5 discriminator 1 view .LVU215
 1003 0040 6420     		movs	r0, #100
 1004 0042 FFF7FEFF 		bl	HAL_Delay
 1005              	.LVL101:
 222:Core/Src/main.c ****     l_sig = ~l_sig;
 1006              		.loc 1 222 8 discriminator 1 view .LVU216
 1007 0046 F6E7     		b	.L56
 1008              	.L59:
 1009              		.align	2
 1010              	.L58:
 1011 0048 00000000 		.word	htim6
 1012 004c 00040240 		.word	1073873920
 1013 0050 00000000 		.word	.LC0
 1014              		.cfi_endproc
 1015              	.LFE259:
 1017              		.section	.text.init,"ax",%progbits
 1018              		.align	1
 1019              		.global	init
 1020              		.syntax unified
 1021              		.thumb
 1022              		.thumb_func
 1024              	init:
 1025              	.LFB260:
 226:Core/Src/main.c ****   }
 227:Core/Src/main.c **** }
 228:Core/Src/main.c **** 
 229:Core/Src/main.c **** void init(){
 1026              		.loc 1 229 12 view -0
 1027              		.cfi_startproc
 1028              		@ args = 0, pretend = 0, frame = 0
 1029              		@ frame_needed = 0, uses_anonymous_args = 0
 1030 0000 10B5     		push	{r4, lr}
 1031              	.LCFI13:
 1032              		.cfi_def_cfa_offset 8
 1033              		.cfi_offset 4, -8
 1034              		.cfi_offset 14, -4
 230:Core/Src/main.c ****   //StartDMA
 231:Core/Src/main.c ****   HAL_ADC_Start_DMA(&hadc1, (uint32_t*)adcval, 5);
 1035              		.loc 1 231 3 view .LVU218
 1036 0002 0522     		movs	r2, #5
 1037 0004 3F49     		ldr	r1, .L71
 1038 0006 4048     		ldr	r0, .L71+4
 1039 0008 FFF7FEFF 		bl	HAL_ADC_Start_DMA
 1040              	.LVL102:
 232:Core/Src/main.c **** 
 233:Core/Src/main.c ****   //InitEnc
 234:Core/Src/main.c ****   uint8_t errcnt = 0;
 1041              		.loc 1 234 3 view .LVU219
 235:Core/Src/main.c ****   AS5047P_Init(&encL, 0);
 1042              		.loc 1 235 3 view .LVU220
 1043 000c 0021     		movs	r1, #0
ARM GAS  C:\Users\neko2\AppData\Local\Temp\ccWG4MHW.s 			page 24


 1044 000e 3F48     		ldr	r0, .L71+8
 1045 0010 FFF7FEFF 		bl	AS5047P_Init
 1046              	.LVL103:
 236:Core/Src/main.c ****   AS5047P_Init(&encR, 1);
 1047              		.loc 1 236 3 view .LVU221
 1048 0014 0121     		movs	r1, #1
 1049 0016 3E48     		ldr	r0, .L71+12
 1050 0018 FFF7FEFF 		bl	AS5047P_Init
 1051              	.LVL104:
 237:Core/Src/main.c ****   while(AS5047P_ErrorPending(&encR) || AS5047P_ErrorPending(&encL)){
 1052              		.loc 1 237 3 view .LVU222
 234:Core/Src/main.c ****   AS5047P_Init(&encL, 0);
 1053              		.loc 1 234 11 is_stmt 0 view .LVU223
 1054 001c 0024     		movs	r4, #0
 1055              		.loc 1 237 8 view .LVU224
 1056 001e 0EE0     		b	.L61
 1057              	.LVL105:
 1058              	.L63:
 238:Core/Src/main.c ****     errcnt++;
 1059              		.loc 1 238 5 is_stmt 1 view .LVU225
 1060              		.loc 1 238 11 is_stmt 0 view .LVU226
 1061 0020 0134     		adds	r4, r4, #1
 1062              	.LVL106:
 1063              		.loc 1 238 11 view .LVU227
 1064 0022 E4B2     		uxtb	r4, r4
 1065              	.LVL107:
 239:Core/Src/main.c ****     if(errcnt >= MAXINITERR) DoPanic();
 1066              		.loc 1 239 5 is_stmt 1 view .LVU228
 1067              		.loc 1 239 7 is_stmt 0 view .LVU229
 1068 0024 092C     		cmp	r4, #9
 1069 0026 27D8     		bhi	.L69
 240:Core/Src/main.c ****     AS5047P_Init(&encL, 0);
 1070              		.loc 1 240 5 is_stmt 1 view .LVU230
 1071 0028 0021     		movs	r1, #0
 1072 002a 3848     		ldr	r0, .L71+8
 1073 002c FFF7FEFF 		bl	AS5047P_Init
 1074              	.LVL108:
 241:Core/Src/main.c ****     AS5047P_Init(&encR, 1);
 1075              		.loc 1 241 5 view .LVU231
 1076 0030 0121     		movs	r1, #1
 1077 0032 3748     		ldr	r0, .L71+12
 1078 0034 FFF7FEFF 		bl	AS5047P_Init
 1079              	.LVL109:
 242:Core/Src/main.c ****     HAL_Delay(100);
 1080              		.loc 1 242 5 view .LVU232
 1081 0038 6420     		movs	r0, #100
 1082 003a FFF7FEFF 		bl	HAL_Delay
 1083              	.LVL110:
 1084              	.L61:
 237:Core/Src/main.c ****     errcnt++;
 1085              		.loc 1 237 8 view .LVU233
 237:Core/Src/main.c ****     errcnt++;
 1086              		.loc 1 237 9 is_stmt 0 view .LVU234
 1087 003e 3448     		ldr	r0, .L71+12
 1088 0040 FFF7FEFF 		bl	AS5047P_ErrorPending
 1089              	.LVL111:
 237:Core/Src/main.c ****     errcnt++;
ARM GAS  C:\Users\neko2\AppData\Local\Temp\ccWG4MHW.s 			page 25


 1090              		.loc 1 237 8 view .LVU235
 1091 0044 0028     		cmp	r0, #0
 1092 0046 EBD1     		bne	.L63
 237:Core/Src/main.c ****     errcnt++;
 1093              		.loc 1 237 40 discriminator 1 view .LVU236
 1094 0048 3048     		ldr	r0, .L71+8
 1095 004a FFF7FEFF 		bl	AS5047P_ErrorPending
 1096              	.LVL112:
 237:Core/Src/main.c ****     errcnt++;
 1097              		.loc 1 237 37 discriminator 1 view .LVU237
 1098 004e 0028     		cmp	r0, #0
 1099 0050 E6D1     		bne	.L63
 243:Core/Src/main.c ****   }
 244:Core/Src/main.c ****   AS5047P_SetZeroPosition(&encL);
 1100              		.loc 1 244 3 is_stmt 1 view .LVU238
 1101 0052 2E48     		ldr	r0, .L71+8
 1102 0054 FFF7FEFF 		bl	AS5047P_SetZeroPosition
 1103              	.LVL113:
 245:Core/Src/main.c ****   AS5047P_SetZeroPosition(&encR);
 1104              		.loc 1 245 3 view .LVU239
 1105 0058 2D48     		ldr	r0, .L71+12
 1106 005a FFF7FEFF 		bl	AS5047P_SetZeroPosition
 1107              	.LVL114:
 246:Core/Src/main.c ****   errcnt = 0;
 1108              		.loc 1 246 3 view .LVU240
 247:Core/Src/main.c **** 
 248:Core/Src/main.c ****   //InitIMU
 249:Core/Src/main.c ****   while(IMU_init() == 0){
 1109              		.loc 1 249 3 view .LVU241
 246:Core/Src/main.c ****   errcnt = 0;
 1110              		.loc 1 246 10 is_stmt 0 view .LVU242
 1111 005e 0024     		movs	r4, #0
 1112              	.LVL115:
 1113              	.L64:
 1114              		.loc 1 249 8 is_stmt 1 view .LVU243
 1115              		.loc 1 249 9 is_stmt 0 view .LVU244
 1116 0060 FFF7FEFF 		bl	IMU_init
 1117              	.LVL116:
 1118              		.loc 1 249 8 view .LVU245
 1119 0064 50B9     		cbnz	r0, .L70
 250:Core/Src/main.c ****     HAL_Delay(100);
 1120              		.loc 1 250 5 is_stmt 1 view .LVU246
 1121 0066 6420     		movs	r0, #100
 1122 0068 FFF7FEFF 		bl	HAL_Delay
 1123              	.LVL117:
 251:Core/Src/main.c ****     errcnt++;
 1124              		.loc 1 251 5 view .LVU247
 1125              		.loc 1 251 11 is_stmt 0 view .LVU248
 1126 006c 0134     		adds	r4, r4, #1
 1127              	.LVL118:
 1128              		.loc 1 251 11 view .LVU249
 1129 006e E4B2     		uxtb	r4, r4
 1130              	.LVL119:
 252:Core/Src/main.c ****     if(errcnt >= MAXINITERR) DoPanic();
 1131              		.loc 1 252 5 is_stmt 1 view .LVU250
 1132              		.loc 1 252 7 is_stmt 0 view .LVU251
 1133 0070 092C     		cmp	r4, #9
ARM GAS  C:\Users\neko2\AppData\Local\Temp\ccWG4MHW.s 			page 26


 1134 0072 F5D9     		bls	.L64
 1135              		.loc 1 252 30 is_stmt 1 discriminator 1 view .LVU252
 1136 0074 FFF7FEFF 		bl	DoPanic
 1137              	.LVL120:
 1138              	.L69:
 239:Core/Src/main.c ****     AS5047P_Init(&encL, 0);
 1139              		.loc 1 239 30 discriminator 1 view .LVU253
 1140 0078 FFF7FEFF 		bl	DoPanic
 1141              	.LVL121:
 1142              	.L70:
 253:Core/Src/main.c ****   }
 254:Core/Src/main.c ****   errcnt = 0;
 1143              		.loc 1 254 3 view .LVU254
 255:Core/Src/main.c **** 
 256:Core/Src/main.c ****   r_yaw_ref = 0;
 1144              		.loc 1 256 3 view .LVU255
 1145              		.loc 1 256 13 is_stmt 0 view .LVU256
 1146 007c 254B     		ldr	r3, .L71+16
 1147 007e 0022     		movs	r2, #0
 1148 0080 1A60     		str	r2, [r3]	@ float
 257:Core/Src/main.c ****   for(uint16_t i = 0;i<GYROREFTIME;i++){
 1149              		.loc 1 257 3 is_stmt 1 view .LVU257
 1150              	.LBB4:
 1151              		.loc 1 257 7 view .LVU258
 1152              	.LVL122:
 1153              		.loc 1 257 16 is_stmt 0 view .LVU259
 1154 0082 0024     		movs	r4, #0
 1155              		.loc 1 257 3 view .LVU260
 1156 0084 14E0     		b	.L66
 1157              	.LVL123:
 1158              	.L67:
 258:Core/Src/main.c ****     read_gyro_data();
 1159              		.loc 1 258 5 is_stmt 1 discriminator 3 view .LVU261
 1160 0086 FFF7FEFF 		bl	read_gyro_data
 1161              	.LVL124:
 259:Core/Src/main.c ****     r_yaw_ref += zg;
 1162              		.loc 1 259 5 discriminator 3 view .LVU262
 1163 008a 234B     		ldr	r3, .L71+20
 1164 008c 1B88     		ldrh	r3, [r3]
 1165 008e 1BB2     		sxth	r3, r3
 1166 0090 07EE903A 		vmov	s15, r3	@ int
 1167              		.loc 1 259 15 is_stmt 0 discriminator 3 view .LVU263
 1168 0094 1F4B     		ldr	r3, .L71+16
 1169 0096 F8EEE77A 		vcvt.f32.s32	s15, s15
 1170 009a 93ED007A 		vldr.32	s14, [r3]
 1171 009e 77EE877A 		vadd.f32	s15, s15, s14
 1172 00a2 C3ED007A 		vstr.32	s15, [r3]
 260:Core/Src/main.c ****     HAL_Delay(1);
 1173              		.loc 1 260 5 is_stmt 1 discriminator 3 view .LVU264
 1174 00a6 0120     		movs	r0, #1
 1175 00a8 FFF7FEFF 		bl	HAL_Delay
 1176              	.LVL125:
 257:Core/Src/main.c ****     read_gyro_data();
 1177              		.loc 1 257 36 discriminator 3 view .LVU265
 257:Core/Src/main.c ****     read_gyro_data();
 1178              		.loc 1 257 37 is_stmt 0 discriminator 3 view .LVU266
 1179 00ac 0134     		adds	r4, r4, #1
ARM GAS  C:\Users\neko2\AppData\Local\Temp\ccWG4MHW.s 			page 27


 1180              	.LVL126:
 257:Core/Src/main.c ****     read_gyro_data();
 1181              		.loc 1 257 37 discriminator 3 view .LVU267
 1182 00ae A4B2     		uxth	r4, r4
 1183              	.LVL127:
 1184              	.L66:
 257:Core/Src/main.c ****     read_gyro_data();
 1185              		.loc 1 257 22 is_stmt 1 discriminator 1 view .LVU268
 257:Core/Src/main.c ****     read_gyro_data();
 1186              		.loc 1 257 3 is_stmt 0 discriminator 1 view .LVU269
 1187 00b0 40F6C313 		movw	r3, #2499
 1188 00b4 9C42     		cmp	r4, r3
 1189 00b6 E6D9     		bls	.L67
 1190              	.LBE4:
 261:Core/Src/main.c ****   }
 262:Core/Src/main.c ****   r_yaw_ref /= (float)GYROREFTIME;
 1191              		.loc 1 262 3 is_stmt 1 view .LVU270
 1192              		.loc 1 262 13 is_stmt 0 view .LVU271
 1193 00b8 164B     		ldr	r3, .L71+16
 1194 00ba D3ED006A 		vldr.32	s13, [r3]
 1195 00be 9FED177A 		vldr.32	s14, .L71+24
 1196 00c2 C6EE877A 		vdiv.f32	s15, s13, s14
 1197 00c6 C3ED007A 		vstr.32	s15, [r3]
 263:Core/Src/main.c **** 
 264:Core/Src/main.c ****   //Motor
 265:Core/Src/main.c ****   HAL_TIM_PWM_Start(&htim1, TIM_CHANNEL_2);
 1198              		.loc 1 265 3 is_stmt 1 view .LVU272
 1199 00ca 154C     		ldr	r4, .L71+28
 1200              	.LVL128:
 1201              		.loc 1 265 3 is_stmt 0 view .LVU273
 1202 00cc 0421     		movs	r1, #4
 1203 00ce 2046     		mov	r0, r4
 1204 00d0 FFF7FEFF 		bl	HAL_TIM_PWM_Start
 1205              	.LVL129:
 266:Core/Src/main.c ****   HAL_TIM_PWM_Start(&htim1, TIM_CHANNEL_3);
 1206              		.loc 1 266 3 is_stmt 1 view .LVU274
 1207 00d4 0821     		movs	r1, #8
 1208 00d6 2046     		mov	r0, r4
 1209 00d8 FFF7FEFF 		bl	HAL_TIM_PWM_Start
 1210              	.LVL130:
 267:Core/Src/main.c ****   HAL_TIM_PWM_Start(&htim1, TIM_CHANNEL_1);
 1211              		.loc 1 267 3 view .LVU275
 1212 00dc 0021     		movs	r1, #0
 1213 00de 2046     		mov	r0, r4
 1214 00e0 FFF7FEFF 		bl	HAL_TIM_PWM_Start
 1215              	.LVL131:
 268:Core/Src/main.c ****   HAL_TIM_PWM_Start(&htim2, TIM_CHANNEL_3);
 1216              		.loc 1 268 3 view .LVU276
 1217 00e4 0821     		movs	r1, #8
 1218 00e6 0F48     		ldr	r0, .L71+32
 1219 00e8 FFF7FEFF 		bl	HAL_TIM_PWM_Start
 1220              	.LVL132:
 269:Core/Src/main.c ****   SetDutyRatio(0,0,0);
 1221              		.loc 1 269 3 view .LVU277
 1222 00ec 0022     		movs	r2, #0
 1223 00ee 1146     		mov	r1, r2
 1224 00f0 1046     		mov	r0, r2
ARM GAS  C:\Users\neko2\AppData\Local\Temp\ccWG4MHW.s 			page 28


 1225 00f2 FFF7FEFF 		bl	SetDutyRatio
 1226              	.LVL133:
 270:Core/Src/main.c **** 
 271:Core/Src/main.c ****   //LED
 272:Core/Src/main.c ****   SetLED(0b000);
 1227              		.loc 1 272 3 view .LVU278
 1228 00f6 0020     		movs	r0, #0
 1229 00f8 FFF7FEFF 		bl	SetLED
 1230              	.LVL134:
 273:Core/Src/main.c **** 
 274:Core/Src/main.c ****   //Interrupt 1kHz
 275:Core/Src/main.c ****   HAL_TIM_Base_Start_IT(&htim6);
 1231              		.loc 1 275 3 view .LVU279
 1232 00fc 0A48     		ldr	r0, .L71+36
 1233 00fe FFF7FEFF 		bl	HAL_TIM_Base_Start_IT
 1234              	.LVL135:
 276:Core/Src/main.c **** }
 1235              		.loc 1 276 1 is_stmt 0 view .LVU280
 1236 0102 10BD     		pop	{r4, pc}
 1237              	.L72:
 1238              		.align	2
 1239              	.L71:
 1240 0104 00000000 		.word	.LANCHOR10
 1241 0108 00000000 		.word	hadc1
 1242 010c 00000000 		.word	.LANCHOR1
 1243 0110 00000000 		.word	.LANCHOR0
 1244 0114 00000000 		.word	.LANCHOR13
 1245 0118 00000000 		.word	zg
 1246 011c 00401C45 		.word	1159479296
 1247 0120 00000000 		.word	htim1
 1248 0124 00000000 		.word	htim2
 1249 0128 00000000 		.word	htim6
 1250              		.cfi_endproc
 1251              	.LFE260:
 1253              		.section	.text._write,"ax",%progbits
 1254              		.align	1
 1255              		.global	_write
 1256              		.syntax unified
 1257              		.thumb
 1258              		.thumb_func
 1260              	_write:
 1261              	.LVL136:
 1262              	.LFB263:
 277:Core/Src/main.c **** /* USER CODE END 0 */
 278:Core/Src/main.c **** 
 279:Core/Src/main.c **** /**
 280:Core/Src/main.c ****   * @brief  The application entry point.
 281:Core/Src/main.c ****   * @retval int
 282:Core/Src/main.c ****   */
 283:Core/Src/main.c **** int main(void)
 284:Core/Src/main.c **** {
 285:Core/Src/main.c ****   /* USER CODE BEGIN 1 */
 286:Core/Src/main.c **** 
 287:Core/Src/main.c ****   /* USER CODE END 1 */
 288:Core/Src/main.c **** 
 289:Core/Src/main.c ****   /* MCU Configuration--------------------------------------------------------*/
 290:Core/Src/main.c **** 
ARM GAS  C:\Users\neko2\AppData\Local\Temp\ccWG4MHW.s 			page 29


 291:Core/Src/main.c ****   /* Reset of all peripherals, Initializes the Flash interface and the Systick. */
 292:Core/Src/main.c ****   HAL_Init();
 293:Core/Src/main.c **** 
 294:Core/Src/main.c ****   /* USER CODE BEGIN Init */
 295:Core/Src/main.c **** 
 296:Core/Src/main.c ****   /* USER CODE END Init */
 297:Core/Src/main.c **** 
 298:Core/Src/main.c ****   /* Configure the system clock */
 299:Core/Src/main.c ****   SystemClock_Config();
 300:Core/Src/main.c **** 
 301:Core/Src/main.c ****   /* USER CODE BEGIN SysInit */
 302:Core/Src/main.c **** 
 303:Core/Src/main.c ****   /* USER CODE END SysInit */
 304:Core/Src/main.c **** 
 305:Core/Src/main.c ****   /* Initialize all configured peripherals */
 306:Core/Src/main.c ****   MX_GPIO_Init();
 307:Core/Src/main.c ****   MX_DMA_Init();
 308:Core/Src/main.c ****   MX_SPI2_Init();
 309:Core/Src/main.c ****   MX_ADC1_Init();
 310:Core/Src/main.c ****   MX_SPI1_Init();
 311:Core/Src/main.c ****   MX_USART6_UART_Init();
 312:Core/Src/main.c ****   MX_TIM1_Init();
 313:Core/Src/main.c ****   MX_TIM2_Init();
 314:Core/Src/main.c ****   MX_TIM6_Init();
 315:Core/Src/main.c ****   /* USER CODE BEGIN 2 */
 316:Core/Src/main.c ****   init();
 317:Core/Src/main.c ****   /* USER CODE END 2 */
 318:Core/Src/main.c **** 
 319:Core/Src/main.c ****   /* Infinite loop */
 320:Core/Src/main.c ****   /* USER CODE BEGIN WHILE */
 321:Core/Src/main.c ****   while (1)
 322:Core/Src/main.c ****   {
 323:Core/Src/main.c ****     /* USER CODE END WHILE */
 324:Core/Src/main.c **** 
 325:Core/Src/main.c ****     /* USER CODE BEGIN 3 */
 326:Core/Src/main.c ****     uint8_t mode = 1;
 327:Core/Src/main.c ****     switch (mode){
 328:Core/Src/main.c ****       case 1:
 329:Core/Src/main.c ****         printf("%fm/s\t%fdeg/s\t%fdeg\r\n",spd,angvel,deg);
 330:Core/Src/main.c ****         HAL_Delay(100);
 331:Core/Src/main.c ****         break;
 332:Core/Src/main.c ****     
 333:Core/Src/main.c ****       default:
 334:Core/Src/main.c ****         DoPanic();
 335:Core/Src/main.c ****         break;
 336:Core/Src/main.c ****     }
 337:Core/Src/main.c **** 
 338:Core/Src/main.c ****   }
 339:Core/Src/main.c ****   /* USER CODE END 3 */
 340:Core/Src/main.c **** }
 341:Core/Src/main.c **** 
 342:Core/Src/main.c **** /**
 343:Core/Src/main.c ****   * @brief System Clock Configuration
 344:Core/Src/main.c ****   * @retval None
 345:Core/Src/main.c ****   */
 346:Core/Src/main.c **** void SystemClock_Config(void)
 347:Core/Src/main.c **** {
ARM GAS  C:\Users\neko2\AppData\Local\Temp\ccWG4MHW.s 			page 30


 348:Core/Src/main.c ****   RCC_OscInitTypeDef RCC_OscInitStruct = {0};
 349:Core/Src/main.c ****   RCC_ClkInitTypeDef RCC_ClkInitStruct = {0};
 350:Core/Src/main.c **** 
 351:Core/Src/main.c ****   /** Configure the main internal regulator output voltage
 352:Core/Src/main.c ****   */
 353:Core/Src/main.c ****   __HAL_RCC_PWR_CLK_ENABLE();
 354:Core/Src/main.c ****   __HAL_PWR_VOLTAGESCALING_CONFIG(PWR_REGULATOR_VOLTAGE_SCALE1);
 355:Core/Src/main.c **** 
 356:Core/Src/main.c ****   /** Initializes the RCC Oscillators according to the specified parameters
 357:Core/Src/main.c ****   * in the RCC_OscInitTypeDef structure.
 358:Core/Src/main.c ****   */
 359:Core/Src/main.c ****   RCC_OscInitStruct.OscillatorType = RCC_OSCILLATORTYPE_HSE;
 360:Core/Src/main.c ****   RCC_OscInitStruct.HSEState = RCC_HSE_BYPASS;
 361:Core/Src/main.c ****   RCC_OscInitStruct.PLL.PLLState = RCC_PLL_ON;
 362:Core/Src/main.c ****   RCC_OscInitStruct.PLL.PLLSource = RCC_PLLSOURCE_HSE;
 363:Core/Src/main.c ****   RCC_OscInitStruct.PLL.PLLM = 10;
 364:Core/Src/main.c ****   RCC_OscInitStruct.PLL.PLLN = 100;
 365:Core/Src/main.c ****   RCC_OscInitStruct.PLL.PLLP = RCC_PLLP_DIV2;
 366:Core/Src/main.c ****   RCC_OscInitStruct.PLL.PLLQ = 2;
 367:Core/Src/main.c ****   RCC_OscInitStruct.PLL.PLLR = 2;
 368:Core/Src/main.c ****   if (HAL_RCC_OscConfig(&RCC_OscInitStruct) != HAL_OK)
 369:Core/Src/main.c ****   {
 370:Core/Src/main.c ****     Error_Handler();
 371:Core/Src/main.c ****   }
 372:Core/Src/main.c **** 
 373:Core/Src/main.c ****   /** Initializes the CPU, AHB and APB buses clocks
 374:Core/Src/main.c ****   */
 375:Core/Src/main.c ****   RCC_ClkInitStruct.ClockType = RCC_CLOCKTYPE_HCLK|RCC_CLOCKTYPE_SYSCLK
 376:Core/Src/main.c ****                               |RCC_CLOCKTYPE_PCLK1|RCC_CLOCKTYPE_PCLK2;
 377:Core/Src/main.c ****   RCC_ClkInitStruct.SYSCLKSource = RCC_SYSCLKSOURCE_PLLCLK;
 378:Core/Src/main.c ****   RCC_ClkInitStruct.AHBCLKDivider = RCC_SYSCLK_DIV1;
 379:Core/Src/main.c ****   RCC_ClkInitStruct.APB1CLKDivider = RCC_HCLK_DIV2;
 380:Core/Src/main.c ****   RCC_ClkInitStruct.APB2CLKDivider = RCC_HCLK_DIV1;
 381:Core/Src/main.c **** 
 382:Core/Src/main.c ****   if (HAL_RCC_ClockConfig(&RCC_ClkInitStruct, FLASH_LATENCY_3) != HAL_OK)
 383:Core/Src/main.c ****   {
 384:Core/Src/main.c ****     Error_Handler();
 385:Core/Src/main.c ****   }
 386:Core/Src/main.c **** }
 387:Core/Src/main.c **** 
 388:Core/Src/main.c **** /* USER CODE BEGIN 4 */
 389:Core/Src/main.c **** int _write(int file, char *ptr, int len)
 390:Core/Src/main.c **** {
 1263              		.loc 1 390 1 is_stmt 1 view -0
 1264              		.cfi_startproc
 1265              		@ args = 0, pretend = 0, frame = 0
 1266              		@ frame_needed = 0, uses_anonymous_args = 0
 1267              		@ link register save eliminated.
 1268              		.loc 1 390 1 is_stmt 0 view .LVU282
 1269 0000 1046     		mov	r0, r2
 1270              	.LVL137:
 391:Core/Src/main.c ****   int DataIdx;
 1271              		.loc 1 391 3 is_stmt 1 view .LVU283
 392:Core/Src/main.c ****   for(DataIdx=0; DataIdx<len; DataIdx++)
 1272              		.loc 1 392 3 view .LVU284
 1273              		.loc 1 392 14 is_stmt 0 view .LVU285
 1274 0002 4FF0000C 		mov	ip, #0
ARM GAS  C:\Users\neko2\AppData\Local\Temp\ccWG4MHW.s 			page 31


 1275              		.loc 1 392 3 view .LVU286
 1276 0006 0AE0     		b	.L74
 1277              	.LVL138:
 1278              	.L77:
 1279              	.LBB7:
 1280              	.LBB8:
 1281              		.file 2 "Drivers/CMSIS/Include/core_cm4.h"
   1:Drivers/CMSIS/Include/core_cm4.h **** /**************************************************************************//**
   2:Drivers/CMSIS/Include/core_cm4.h ****  * @file     core_cm4.h
   3:Drivers/CMSIS/Include/core_cm4.h ****  * @brief    CMSIS Cortex-M4 Core Peripheral Access Layer Header File
   4:Drivers/CMSIS/Include/core_cm4.h ****  * @version  V5.0.8
   5:Drivers/CMSIS/Include/core_cm4.h ****  * @date     04. June 2018
   6:Drivers/CMSIS/Include/core_cm4.h ****  ******************************************************************************/
   7:Drivers/CMSIS/Include/core_cm4.h **** /*
   8:Drivers/CMSIS/Include/core_cm4.h ****  * Copyright (c) 2009-2018 Arm Limited. All rights reserved.
   9:Drivers/CMSIS/Include/core_cm4.h ****  *
  10:Drivers/CMSIS/Include/core_cm4.h ****  * SPDX-License-Identifier: Apache-2.0
  11:Drivers/CMSIS/Include/core_cm4.h ****  *
  12:Drivers/CMSIS/Include/core_cm4.h ****  * Licensed under the Apache License, Version 2.0 (the License); you may
  13:Drivers/CMSIS/Include/core_cm4.h ****  * not use this file except in compliance with the License.
  14:Drivers/CMSIS/Include/core_cm4.h ****  * You may obtain a copy of the License at
  15:Drivers/CMSIS/Include/core_cm4.h ****  *
  16:Drivers/CMSIS/Include/core_cm4.h ****  * www.apache.org/licenses/LICENSE-2.0
  17:Drivers/CMSIS/Include/core_cm4.h ****  *
  18:Drivers/CMSIS/Include/core_cm4.h ****  * Unless required by applicable law or agreed to in writing, software
  19:Drivers/CMSIS/Include/core_cm4.h ****  * distributed under the License is distributed on an AS IS BASIS, WITHOUT
  20:Drivers/CMSIS/Include/core_cm4.h ****  * WARRANTIES OR CONDITIONS OF ANY KIND, either express or implied.
  21:Drivers/CMSIS/Include/core_cm4.h ****  * See the License for the specific language governing permissions and
  22:Drivers/CMSIS/Include/core_cm4.h ****  * limitations under the License.
  23:Drivers/CMSIS/Include/core_cm4.h ****  */
  24:Drivers/CMSIS/Include/core_cm4.h **** 
  25:Drivers/CMSIS/Include/core_cm4.h **** #if   defined ( __ICCARM__ )
  26:Drivers/CMSIS/Include/core_cm4.h ****   #pragma system_include         /* treat file as system include file for MISRA check */
  27:Drivers/CMSIS/Include/core_cm4.h **** #elif defined (__clang__)
  28:Drivers/CMSIS/Include/core_cm4.h ****   #pragma clang system_header   /* treat file as system include file */
  29:Drivers/CMSIS/Include/core_cm4.h **** #endif
  30:Drivers/CMSIS/Include/core_cm4.h **** 
  31:Drivers/CMSIS/Include/core_cm4.h **** #ifndef __CORE_CM4_H_GENERIC
  32:Drivers/CMSIS/Include/core_cm4.h **** #define __CORE_CM4_H_GENERIC
  33:Drivers/CMSIS/Include/core_cm4.h **** 
  34:Drivers/CMSIS/Include/core_cm4.h **** #include <stdint.h>
  35:Drivers/CMSIS/Include/core_cm4.h **** 
  36:Drivers/CMSIS/Include/core_cm4.h **** #ifdef __cplusplus
  37:Drivers/CMSIS/Include/core_cm4.h ****  extern "C" {
  38:Drivers/CMSIS/Include/core_cm4.h **** #endif
  39:Drivers/CMSIS/Include/core_cm4.h **** 
  40:Drivers/CMSIS/Include/core_cm4.h **** /**
  41:Drivers/CMSIS/Include/core_cm4.h ****   \page CMSIS_MISRA_Exceptions  MISRA-C:2004 Compliance Exceptions
  42:Drivers/CMSIS/Include/core_cm4.h ****   CMSIS violates the following MISRA-C:2004 rules:
  43:Drivers/CMSIS/Include/core_cm4.h **** 
  44:Drivers/CMSIS/Include/core_cm4.h ****    \li Required Rule 8.5, object/function definition in header file.<br>
  45:Drivers/CMSIS/Include/core_cm4.h ****      Function definitions in header files are used to allow 'inlining'.
  46:Drivers/CMSIS/Include/core_cm4.h **** 
  47:Drivers/CMSIS/Include/core_cm4.h ****    \li Required Rule 18.4, declaration of union type or object of union type: '{...}'.<br>
  48:Drivers/CMSIS/Include/core_cm4.h ****      Unions are used for effective representation of core registers.
  49:Drivers/CMSIS/Include/core_cm4.h **** 
  50:Drivers/CMSIS/Include/core_cm4.h ****    \li Advisory Rule 19.7, Function-like macro defined.<br>
ARM GAS  C:\Users\neko2\AppData\Local\Temp\ccWG4MHW.s 			page 32


  51:Drivers/CMSIS/Include/core_cm4.h ****      Function-like macros are used to allow more efficient code.
  52:Drivers/CMSIS/Include/core_cm4.h ****  */
  53:Drivers/CMSIS/Include/core_cm4.h **** 
  54:Drivers/CMSIS/Include/core_cm4.h **** 
  55:Drivers/CMSIS/Include/core_cm4.h **** /*******************************************************************************
  56:Drivers/CMSIS/Include/core_cm4.h ****  *                 CMSIS definitions
  57:Drivers/CMSIS/Include/core_cm4.h ****  ******************************************************************************/
  58:Drivers/CMSIS/Include/core_cm4.h **** /**
  59:Drivers/CMSIS/Include/core_cm4.h ****   \ingroup Cortex_M4
  60:Drivers/CMSIS/Include/core_cm4.h ****   @{
  61:Drivers/CMSIS/Include/core_cm4.h ****  */
  62:Drivers/CMSIS/Include/core_cm4.h **** 
  63:Drivers/CMSIS/Include/core_cm4.h **** #include "cmsis_version.h"
  64:Drivers/CMSIS/Include/core_cm4.h **** 
  65:Drivers/CMSIS/Include/core_cm4.h **** /* CMSIS CM4 definitions */
  66:Drivers/CMSIS/Include/core_cm4.h **** #define __CM4_CMSIS_VERSION_MAIN  (__CM_CMSIS_VERSION_MAIN)              /*!< \deprecated [31:16] C
  67:Drivers/CMSIS/Include/core_cm4.h **** #define __CM4_CMSIS_VERSION_SUB   (__CM_CMSIS_VERSION_SUB)               /*!< \deprecated [15:0]  C
  68:Drivers/CMSIS/Include/core_cm4.h **** #define __CM4_CMSIS_VERSION       ((__CM4_CMSIS_VERSION_MAIN << 16U) | \
  69:Drivers/CMSIS/Include/core_cm4.h ****                                     __CM4_CMSIS_VERSION_SUB           )  /*!< \deprecated CMSIS HAL
  70:Drivers/CMSIS/Include/core_cm4.h **** 
  71:Drivers/CMSIS/Include/core_cm4.h **** #define __CORTEX_M                (4U)                                   /*!< Cortex-M Core */
  72:Drivers/CMSIS/Include/core_cm4.h **** 
  73:Drivers/CMSIS/Include/core_cm4.h **** /** __FPU_USED indicates whether an FPU is used or not.
  74:Drivers/CMSIS/Include/core_cm4.h ****     For this, __FPU_PRESENT has to be checked prior to making use of FPU specific registers and fun
  75:Drivers/CMSIS/Include/core_cm4.h **** */
  76:Drivers/CMSIS/Include/core_cm4.h **** #if defined ( __CC_ARM )
  77:Drivers/CMSIS/Include/core_cm4.h ****   #if defined __TARGET_FPU_VFP
  78:Drivers/CMSIS/Include/core_cm4.h ****     #if defined (__FPU_PRESENT) && (__FPU_PRESENT == 1U)
  79:Drivers/CMSIS/Include/core_cm4.h ****       #define __FPU_USED       1U
  80:Drivers/CMSIS/Include/core_cm4.h ****     #else
  81:Drivers/CMSIS/Include/core_cm4.h ****       #error "Compiler generates FPU instructions for a device without an FPU (check __FPU_PRESENT)
  82:Drivers/CMSIS/Include/core_cm4.h ****       #define __FPU_USED       0U
  83:Drivers/CMSIS/Include/core_cm4.h ****     #endif
  84:Drivers/CMSIS/Include/core_cm4.h ****   #else
  85:Drivers/CMSIS/Include/core_cm4.h ****     #define __FPU_USED         0U
  86:Drivers/CMSIS/Include/core_cm4.h ****   #endif
  87:Drivers/CMSIS/Include/core_cm4.h **** 
  88:Drivers/CMSIS/Include/core_cm4.h **** #elif defined (__ARMCC_VERSION) && (__ARMCC_VERSION >= 6010050)
  89:Drivers/CMSIS/Include/core_cm4.h ****   #if defined __ARM_PCS_VFP
  90:Drivers/CMSIS/Include/core_cm4.h ****     #if defined (__FPU_PRESENT) && (__FPU_PRESENT == 1U)
  91:Drivers/CMSIS/Include/core_cm4.h ****       #define __FPU_USED       1U
  92:Drivers/CMSIS/Include/core_cm4.h ****     #else
  93:Drivers/CMSIS/Include/core_cm4.h ****       #warning "Compiler generates FPU instructions for a device without an FPU (check __FPU_PRESEN
  94:Drivers/CMSIS/Include/core_cm4.h ****       #define __FPU_USED       0U
  95:Drivers/CMSIS/Include/core_cm4.h ****     #endif
  96:Drivers/CMSIS/Include/core_cm4.h ****   #else
  97:Drivers/CMSIS/Include/core_cm4.h ****     #define __FPU_USED         0U
  98:Drivers/CMSIS/Include/core_cm4.h ****   #endif
  99:Drivers/CMSIS/Include/core_cm4.h **** 
 100:Drivers/CMSIS/Include/core_cm4.h **** #elif defined ( __GNUC__ )
 101:Drivers/CMSIS/Include/core_cm4.h ****   #if defined (__VFP_FP__) && !defined(__SOFTFP__)
 102:Drivers/CMSIS/Include/core_cm4.h ****     #if defined (__FPU_PRESENT) && (__FPU_PRESENT == 1U)
 103:Drivers/CMSIS/Include/core_cm4.h ****       #define __FPU_USED       1U
 104:Drivers/CMSIS/Include/core_cm4.h ****     #else
 105:Drivers/CMSIS/Include/core_cm4.h ****       #error "Compiler generates FPU instructions for a device without an FPU (check __FPU_PRESENT)
 106:Drivers/CMSIS/Include/core_cm4.h ****       #define __FPU_USED       0U
 107:Drivers/CMSIS/Include/core_cm4.h ****     #endif
ARM GAS  C:\Users\neko2\AppData\Local\Temp\ccWG4MHW.s 			page 33


 108:Drivers/CMSIS/Include/core_cm4.h ****   #else
 109:Drivers/CMSIS/Include/core_cm4.h ****     #define __FPU_USED         0U
 110:Drivers/CMSIS/Include/core_cm4.h ****   #endif
 111:Drivers/CMSIS/Include/core_cm4.h **** 
 112:Drivers/CMSIS/Include/core_cm4.h **** #elif defined ( __ICCARM__ )
 113:Drivers/CMSIS/Include/core_cm4.h ****   #if defined __ARMVFP__
 114:Drivers/CMSIS/Include/core_cm4.h ****     #if defined (__FPU_PRESENT) && (__FPU_PRESENT == 1U)
 115:Drivers/CMSIS/Include/core_cm4.h ****       #define __FPU_USED       1U
 116:Drivers/CMSIS/Include/core_cm4.h ****     #else
 117:Drivers/CMSIS/Include/core_cm4.h ****       #error "Compiler generates FPU instructions for a device without an FPU (check __FPU_PRESENT)
 118:Drivers/CMSIS/Include/core_cm4.h ****       #define __FPU_USED       0U
 119:Drivers/CMSIS/Include/core_cm4.h ****     #endif
 120:Drivers/CMSIS/Include/core_cm4.h ****   #else
 121:Drivers/CMSIS/Include/core_cm4.h ****     #define __FPU_USED         0U
 122:Drivers/CMSIS/Include/core_cm4.h ****   #endif
 123:Drivers/CMSIS/Include/core_cm4.h **** 
 124:Drivers/CMSIS/Include/core_cm4.h **** #elif defined ( __TI_ARM__ )
 125:Drivers/CMSIS/Include/core_cm4.h ****   #if defined __TI_VFP_SUPPORT__
 126:Drivers/CMSIS/Include/core_cm4.h ****     #if defined (__FPU_PRESENT) && (__FPU_PRESENT == 1U)
 127:Drivers/CMSIS/Include/core_cm4.h ****       #define __FPU_USED       1U
 128:Drivers/CMSIS/Include/core_cm4.h ****     #else
 129:Drivers/CMSIS/Include/core_cm4.h ****       #error "Compiler generates FPU instructions for a device without an FPU (check __FPU_PRESENT)
 130:Drivers/CMSIS/Include/core_cm4.h ****       #define __FPU_USED       0U
 131:Drivers/CMSIS/Include/core_cm4.h ****     #endif
 132:Drivers/CMSIS/Include/core_cm4.h ****   #else
 133:Drivers/CMSIS/Include/core_cm4.h ****     #define __FPU_USED         0U
 134:Drivers/CMSIS/Include/core_cm4.h ****   #endif
 135:Drivers/CMSIS/Include/core_cm4.h **** 
 136:Drivers/CMSIS/Include/core_cm4.h **** #elif defined ( __TASKING__ )
 137:Drivers/CMSIS/Include/core_cm4.h ****   #if defined __FPU_VFP__
 138:Drivers/CMSIS/Include/core_cm4.h ****     #if defined (__FPU_PRESENT) && (__FPU_PRESENT == 1U)
 139:Drivers/CMSIS/Include/core_cm4.h ****       #define __FPU_USED       1U
 140:Drivers/CMSIS/Include/core_cm4.h ****     #else
 141:Drivers/CMSIS/Include/core_cm4.h ****       #error "Compiler generates FPU instructions for a device without an FPU (check __FPU_PRESENT)
 142:Drivers/CMSIS/Include/core_cm4.h ****       #define __FPU_USED       0U
 143:Drivers/CMSIS/Include/core_cm4.h ****     #endif
 144:Drivers/CMSIS/Include/core_cm4.h ****   #else
 145:Drivers/CMSIS/Include/core_cm4.h ****     #define __FPU_USED         0U
 146:Drivers/CMSIS/Include/core_cm4.h ****   #endif
 147:Drivers/CMSIS/Include/core_cm4.h **** 
 148:Drivers/CMSIS/Include/core_cm4.h **** #elif defined ( __CSMC__ )
 149:Drivers/CMSIS/Include/core_cm4.h ****   #if ( __CSMC__ & 0x400U)
 150:Drivers/CMSIS/Include/core_cm4.h ****     #if defined (__FPU_PRESENT) && (__FPU_PRESENT == 1U)
 151:Drivers/CMSIS/Include/core_cm4.h ****       #define __FPU_USED       1U
 152:Drivers/CMSIS/Include/core_cm4.h ****     #else
 153:Drivers/CMSIS/Include/core_cm4.h ****       #error "Compiler generates FPU instructions for a device without an FPU (check __FPU_PRESENT)
 154:Drivers/CMSIS/Include/core_cm4.h ****       #define __FPU_USED       0U
 155:Drivers/CMSIS/Include/core_cm4.h ****     #endif
 156:Drivers/CMSIS/Include/core_cm4.h ****   #else
 157:Drivers/CMSIS/Include/core_cm4.h ****     #define __FPU_USED         0U
 158:Drivers/CMSIS/Include/core_cm4.h ****   #endif
 159:Drivers/CMSIS/Include/core_cm4.h **** 
 160:Drivers/CMSIS/Include/core_cm4.h **** #endif
 161:Drivers/CMSIS/Include/core_cm4.h **** 
 162:Drivers/CMSIS/Include/core_cm4.h **** #include "cmsis_compiler.h"               /* CMSIS compiler specific defines */
 163:Drivers/CMSIS/Include/core_cm4.h **** 
 164:Drivers/CMSIS/Include/core_cm4.h **** 
ARM GAS  C:\Users\neko2\AppData\Local\Temp\ccWG4MHW.s 			page 34


 165:Drivers/CMSIS/Include/core_cm4.h **** #ifdef __cplusplus
 166:Drivers/CMSIS/Include/core_cm4.h **** }
 167:Drivers/CMSIS/Include/core_cm4.h **** #endif
 168:Drivers/CMSIS/Include/core_cm4.h **** 
 169:Drivers/CMSIS/Include/core_cm4.h **** #endif /* __CORE_CM4_H_GENERIC */
 170:Drivers/CMSIS/Include/core_cm4.h **** 
 171:Drivers/CMSIS/Include/core_cm4.h **** #ifndef __CMSIS_GENERIC
 172:Drivers/CMSIS/Include/core_cm4.h **** 
 173:Drivers/CMSIS/Include/core_cm4.h **** #ifndef __CORE_CM4_H_DEPENDANT
 174:Drivers/CMSIS/Include/core_cm4.h **** #define __CORE_CM4_H_DEPENDANT
 175:Drivers/CMSIS/Include/core_cm4.h **** 
 176:Drivers/CMSIS/Include/core_cm4.h **** #ifdef __cplusplus
 177:Drivers/CMSIS/Include/core_cm4.h ****  extern "C" {
 178:Drivers/CMSIS/Include/core_cm4.h **** #endif
 179:Drivers/CMSIS/Include/core_cm4.h **** 
 180:Drivers/CMSIS/Include/core_cm4.h **** /* check device defines and use defaults */
 181:Drivers/CMSIS/Include/core_cm4.h **** #if defined __CHECK_DEVICE_DEFINES
 182:Drivers/CMSIS/Include/core_cm4.h ****   #ifndef __CM4_REV
 183:Drivers/CMSIS/Include/core_cm4.h ****     #define __CM4_REV               0x0000U
 184:Drivers/CMSIS/Include/core_cm4.h ****     #warning "__CM4_REV not defined in device header file; using default!"
 185:Drivers/CMSIS/Include/core_cm4.h ****   #endif
 186:Drivers/CMSIS/Include/core_cm4.h **** 
 187:Drivers/CMSIS/Include/core_cm4.h ****   #ifndef __FPU_PRESENT
 188:Drivers/CMSIS/Include/core_cm4.h ****     #define __FPU_PRESENT             0U
 189:Drivers/CMSIS/Include/core_cm4.h ****     #warning "__FPU_PRESENT not defined in device header file; using default!"
 190:Drivers/CMSIS/Include/core_cm4.h ****   #endif
 191:Drivers/CMSIS/Include/core_cm4.h **** 
 192:Drivers/CMSIS/Include/core_cm4.h ****   #ifndef __MPU_PRESENT
 193:Drivers/CMSIS/Include/core_cm4.h ****     #define __MPU_PRESENT             0U
 194:Drivers/CMSIS/Include/core_cm4.h ****     #warning "__MPU_PRESENT not defined in device header file; using default!"
 195:Drivers/CMSIS/Include/core_cm4.h ****   #endif
 196:Drivers/CMSIS/Include/core_cm4.h **** 
 197:Drivers/CMSIS/Include/core_cm4.h ****   #ifndef __NVIC_PRIO_BITS
 198:Drivers/CMSIS/Include/core_cm4.h ****     #define __NVIC_PRIO_BITS          3U
 199:Drivers/CMSIS/Include/core_cm4.h ****     #warning "__NVIC_PRIO_BITS not defined in device header file; using default!"
 200:Drivers/CMSIS/Include/core_cm4.h ****   #endif
 201:Drivers/CMSIS/Include/core_cm4.h **** 
 202:Drivers/CMSIS/Include/core_cm4.h ****   #ifndef __Vendor_SysTickConfig
 203:Drivers/CMSIS/Include/core_cm4.h ****     #define __Vendor_SysTickConfig    0U
 204:Drivers/CMSIS/Include/core_cm4.h ****     #warning "__Vendor_SysTickConfig not defined in device header file; using default!"
 205:Drivers/CMSIS/Include/core_cm4.h ****   #endif
 206:Drivers/CMSIS/Include/core_cm4.h **** #endif
 207:Drivers/CMSIS/Include/core_cm4.h **** 
 208:Drivers/CMSIS/Include/core_cm4.h **** /* IO definitions (access restrictions to peripheral registers) */
 209:Drivers/CMSIS/Include/core_cm4.h **** /**
 210:Drivers/CMSIS/Include/core_cm4.h ****     \defgroup CMSIS_glob_defs CMSIS Global Defines
 211:Drivers/CMSIS/Include/core_cm4.h **** 
 212:Drivers/CMSIS/Include/core_cm4.h ****     <strong>IO Type Qualifiers</strong> are used
 213:Drivers/CMSIS/Include/core_cm4.h ****     \li to specify the access to peripheral variables.
 214:Drivers/CMSIS/Include/core_cm4.h ****     \li for automatic generation of peripheral register debug information.
 215:Drivers/CMSIS/Include/core_cm4.h **** */
 216:Drivers/CMSIS/Include/core_cm4.h **** #ifdef __cplusplus
 217:Drivers/CMSIS/Include/core_cm4.h ****   #define   __I     volatile             /*!< Defines 'read only' permissions */
 218:Drivers/CMSIS/Include/core_cm4.h **** #else
 219:Drivers/CMSIS/Include/core_cm4.h ****   #define   __I     volatile const       /*!< Defines 'read only' permissions */
 220:Drivers/CMSIS/Include/core_cm4.h **** #endif
 221:Drivers/CMSIS/Include/core_cm4.h **** #define     __O     volatile             /*!< Defines 'write only' permissions */
ARM GAS  C:\Users\neko2\AppData\Local\Temp\ccWG4MHW.s 			page 35


 222:Drivers/CMSIS/Include/core_cm4.h **** #define     __IO    volatile             /*!< Defines 'read / write' permissions */
 223:Drivers/CMSIS/Include/core_cm4.h **** 
 224:Drivers/CMSIS/Include/core_cm4.h **** /* following defines should be used for structure members */
 225:Drivers/CMSIS/Include/core_cm4.h **** #define     __IM     volatile const      /*! Defines 'read only' structure member permissions */
 226:Drivers/CMSIS/Include/core_cm4.h **** #define     __OM     volatile            /*! Defines 'write only' structure member permissions */
 227:Drivers/CMSIS/Include/core_cm4.h **** #define     __IOM    volatile            /*! Defines 'read / write' structure member permissions */
 228:Drivers/CMSIS/Include/core_cm4.h **** 
 229:Drivers/CMSIS/Include/core_cm4.h **** /*@} end of group Cortex_M4 */
 230:Drivers/CMSIS/Include/core_cm4.h **** 
 231:Drivers/CMSIS/Include/core_cm4.h **** 
 232:Drivers/CMSIS/Include/core_cm4.h **** 
 233:Drivers/CMSIS/Include/core_cm4.h **** /*******************************************************************************
 234:Drivers/CMSIS/Include/core_cm4.h ****  *                 Register Abstraction
 235:Drivers/CMSIS/Include/core_cm4.h ****   Core Register contain:
 236:Drivers/CMSIS/Include/core_cm4.h ****   - Core Register
 237:Drivers/CMSIS/Include/core_cm4.h ****   - Core NVIC Register
 238:Drivers/CMSIS/Include/core_cm4.h ****   - Core SCB Register
 239:Drivers/CMSIS/Include/core_cm4.h ****   - Core SysTick Register
 240:Drivers/CMSIS/Include/core_cm4.h ****   - Core Debug Register
 241:Drivers/CMSIS/Include/core_cm4.h ****   - Core MPU Register
 242:Drivers/CMSIS/Include/core_cm4.h ****   - Core FPU Register
 243:Drivers/CMSIS/Include/core_cm4.h ****  ******************************************************************************/
 244:Drivers/CMSIS/Include/core_cm4.h **** /**
 245:Drivers/CMSIS/Include/core_cm4.h ****   \defgroup CMSIS_core_register Defines and Type Definitions
 246:Drivers/CMSIS/Include/core_cm4.h ****   \brief Type definitions and defines for Cortex-M processor based devices.
 247:Drivers/CMSIS/Include/core_cm4.h **** */
 248:Drivers/CMSIS/Include/core_cm4.h **** 
 249:Drivers/CMSIS/Include/core_cm4.h **** /**
 250:Drivers/CMSIS/Include/core_cm4.h ****   \ingroup    CMSIS_core_register
 251:Drivers/CMSIS/Include/core_cm4.h ****   \defgroup   CMSIS_CORE  Status and Control Registers
 252:Drivers/CMSIS/Include/core_cm4.h ****   \brief      Core Register type definitions.
 253:Drivers/CMSIS/Include/core_cm4.h ****   @{
 254:Drivers/CMSIS/Include/core_cm4.h ****  */
 255:Drivers/CMSIS/Include/core_cm4.h **** 
 256:Drivers/CMSIS/Include/core_cm4.h **** /**
 257:Drivers/CMSIS/Include/core_cm4.h ****   \brief  Union type to access the Application Program Status Register (APSR).
 258:Drivers/CMSIS/Include/core_cm4.h ****  */
 259:Drivers/CMSIS/Include/core_cm4.h **** typedef union
 260:Drivers/CMSIS/Include/core_cm4.h **** {
 261:Drivers/CMSIS/Include/core_cm4.h ****   struct
 262:Drivers/CMSIS/Include/core_cm4.h ****   {
 263:Drivers/CMSIS/Include/core_cm4.h ****     uint32_t _reserved0:16;              /*!< bit:  0..15  Reserved */
 264:Drivers/CMSIS/Include/core_cm4.h ****     uint32_t GE:4;                       /*!< bit: 16..19  Greater than or Equal flags */
 265:Drivers/CMSIS/Include/core_cm4.h ****     uint32_t _reserved1:7;               /*!< bit: 20..26  Reserved */
 266:Drivers/CMSIS/Include/core_cm4.h ****     uint32_t Q:1;                        /*!< bit:     27  Saturation condition flag */
 267:Drivers/CMSIS/Include/core_cm4.h ****     uint32_t V:1;                        /*!< bit:     28  Overflow condition code flag */
 268:Drivers/CMSIS/Include/core_cm4.h ****     uint32_t C:1;                        /*!< bit:     29  Carry condition code flag */
 269:Drivers/CMSIS/Include/core_cm4.h ****     uint32_t Z:1;                        /*!< bit:     30  Zero condition code flag */
 270:Drivers/CMSIS/Include/core_cm4.h ****     uint32_t N:1;                        /*!< bit:     31  Negative condition code flag */
 271:Drivers/CMSIS/Include/core_cm4.h ****   } b;                                   /*!< Structure used for bit  access */
 272:Drivers/CMSIS/Include/core_cm4.h ****   uint32_t w;                            /*!< Type      used for word access */
 273:Drivers/CMSIS/Include/core_cm4.h **** } APSR_Type;
 274:Drivers/CMSIS/Include/core_cm4.h **** 
 275:Drivers/CMSIS/Include/core_cm4.h **** /* APSR Register Definitions */
 276:Drivers/CMSIS/Include/core_cm4.h **** #define APSR_N_Pos                         31U                                            /*!< APSR
 277:Drivers/CMSIS/Include/core_cm4.h **** #define APSR_N_Msk                         (1UL << APSR_N_Pos)                            /*!< APSR
 278:Drivers/CMSIS/Include/core_cm4.h **** 
ARM GAS  C:\Users\neko2\AppData\Local\Temp\ccWG4MHW.s 			page 36


 279:Drivers/CMSIS/Include/core_cm4.h **** #define APSR_Z_Pos                         30U                                            /*!< APSR
 280:Drivers/CMSIS/Include/core_cm4.h **** #define APSR_Z_Msk                         (1UL << APSR_Z_Pos)                            /*!< APSR
 281:Drivers/CMSIS/Include/core_cm4.h **** 
 282:Drivers/CMSIS/Include/core_cm4.h **** #define APSR_C_Pos                         29U                                            /*!< APSR
 283:Drivers/CMSIS/Include/core_cm4.h **** #define APSR_C_Msk                         (1UL << APSR_C_Pos)                            /*!< APSR
 284:Drivers/CMSIS/Include/core_cm4.h **** 
 285:Drivers/CMSIS/Include/core_cm4.h **** #define APSR_V_Pos                         28U                                            /*!< APSR
 286:Drivers/CMSIS/Include/core_cm4.h **** #define APSR_V_Msk                         (1UL << APSR_V_Pos)                            /*!< APSR
 287:Drivers/CMSIS/Include/core_cm4.h **** 
 288:Drivers/CMSIS/Include/core_cm4.h **** #define APSR_Q_Pos                         27U                                            /*!< APSR
 289:Drivers/CMSIS/Include/core_cm4.h **** #define APSR_Q_Msk                         (1UL << APSR_Q_Pos)                            /*!< APSR
 290:Drivers/CMSIS/Include/core_cm4.h **** 
 291:Drivers/CMSIS/Include/core_cm4.h **** #define APSR_GE_Pos                        16U                                            /*!< APSR
 292:Drivers/CMSIS/Include/core_cm4.h **** #define APSR_GE_Msk                        (0xFUL << APSR_GE_Pos)                         /*!< APSR
 293:Drivers/CMSIS/Include/core_cm4.h **** 
 294:Drivers/CMSIS/Include/core_cm4.h **** 
 295:Drivers/CMSIS/Include/core_cm4.h **** /**
 296:Drivers/CMSIS/Include/core_cm4.h ****   \brief  Union type to access the Interrupt Program Status Register (IPSR).
 297:Drivers/CMSIS/Include/core_cm4.h ****  */
 298:Drivers/CMSIS/Include/core_cm4.h **** typedef union
 299:Drivers/CMSIS/Include/core_cm4.h **** {
 300:Drivers/CMSIS/Include/core_cm4.h ****   struct
 301:Drivers/CMSIS/Include/core_cm4.h ****   {
 302:Drivers/CMSIS/Include/core_cm4.h ****     uint32_t ISR:9;                      /*!< bit:  0.. 8  Exception number */
 303:Drivers/CMSIS/Include/core_cm4.h ****     uint32_t _reserved0:23;              /*!< bit:  9..31  Reserved */
 304:Drivers/CMSIS/Include/core_cm4.h ****   } b;                                   /*!< Structure used for bit  access */
 305:Drivers/CMSIS/Include/core_cm4.h ****   uint32_t w;                            /*!< Type      used for word access */
 306:Drivers/CMSIS/Include/core_cm4.h **** } IPSR_Type;
 307:Drivers/CMSIS/Include/core_cm4.h **** 
 308:Drivers/CMSIS/Include/core_cm4.h **** /* IPSR Register Definitions */
 309:Drivers/CMSIS/Include/core_cm4.h **** #define IPSR_ISR_Pos                        0U                                            /*!< IPSR
 310:Drivers/CMSIS/Include/core_cm4.h **** #define IPSR_ISR_Msk                       (0x1FFUL /*<< IPSR_ISR_Pos*/)                  /*!< IPSR
 311:Drivers/CMSIS/Include/core_cm4.h **** 
 312:Drivers/CMSIS/Include/core_cm4.h **** 
 313:Drivers/CMSIS/Include/core_cm4.h **** /**
 314:Drivers/CMSIS/Include/core_cm4.h ****   \brief  Union type to access the Special-Purpose Program Status Registers (xPSR).
 315:Drivers/CMSIS/Include/core_cm4.h ****  */
 316:Drivers/CMSIS/Include/core_cm4.h **** typedef union
 317:Drivers/CMSIS/Include/core_cm4.h **** {
 318:Drivers/CMSIS/Include/core_cm4.h ****   struct
 319:Drivers/CMSIS/Include/core_cm4.h ****   {
 320:Drivers/CMSIS/Include/core_cm4.h ****     uint32_t ISR:9;                      /*!< bit:  0.. 8  Exception number */
 321:Drivers/CMSIS/Include/core_cm4.h ****     uint32_t _reserved0:1;               /*!< bit:      9  Reserved */
 322:Drivers/CMSIS/Include/core_cm4.h ****     uint32_t ICI_IT_1:6;                 /*!< bit: 10..15  ICI/IT part 1 */
 323:Drivers/CMSIS/Include/core_cm4.h ****     uint32_t GE:4;                       /*!< bit: 16..19  Greater than or Equal flags */
 324:Drivers/CMSIS/Include/core_cm4.h ****     uint32_t _reserved1:4;               /*!< bit: 20..23  Reserved */
 325:Drivers/CMSIS/Include/core_cm4.h ****     uint32_t T:1;                        /*!< bit:     24  Thumb bit */
 326:Drivers/CMSIS/Include/core_cm4.h ****     uint32_t ICI_IT_2:2;                 /*!< bit: 25..26  ICI/IT part 2 */
 327:Drivers/CMSIS/Include/core_cm4.h ****     uint32_t Q:1;                        /*!< bit:     27  Saturation condition flag */
 328:Drivers/CMSIS/Include/core_cm4.h ****     uint32_t V:1;                        /*!< bit:     28  Overflow condition code flag */
 329:Drivers/CMSIS/Include/core_cm4.h ****     uint32_t C:1;                        /*!< bit:     29  Carry condition code flag */
 330:Drivers/CMSIS/Include/core_cm4.h ****     uint32_t Z:1;                        /*!< bit:     30  Zero condition code flag */
 331:Drivers/CMSIS/Include/core_cm4.h ****     uint32_t N:1;                        /*!< bit:     31  Negative condition code flag */
 332:Drivers/CMSIS/Include/core_cm4.h ****   } b;                                   /*!< Structure used for bit  access */
 333:Drivers/CMSIS/Include/core_cm4.h ****   uint32_t w;                            /*!< Type      used for word access */
 334:Drivers/CMSIS/Include/core_cm4.h **** } xPSR_Type;
 335:Drivers/CMSIS/Include/core_cm4.h **** 
ARM GAS  C:\Users\neko2\AppData\Local\Temp\ccWG4MHW.s 			page 37


 336:Drivers/CMSIS/Include/core_cm4.h **** /* xPSR Register Definitions */
 337:Drivers/CMSIS/Include/core_cm4.h **** #define xPSR_N_Pos                         31U                                            /*!< xPSR
 338:Drivers/CMSIS/Include/core_cm4.h **** #define xPSR_N_Msk                         (1UL << xPSR_N_Pos)                            /*!< xPSR
 339:Drivers/CMSIS/Include/core_cm4.h **** 
 340:Drivers/CMSIS/Include/core_cm4.h **** #define xPSR_Z_Pos                         30U                                            /*!< xPSR
 341:Drivers/CMSIS/Include/core_cm4.h **** #define xPSR_Z_Msk                         (1UL << xPSR_Z_Pos)                            /*!< xPSR
 342:Drivers/CMSIS/Include/core_cm4.h **** 
 343:Drivers/CMSIS/Include/core_cm4.h **** #define xPSR_C_Pos                         29U                                            /*!< xPSR
 344:Drivers/CMSIS/Include/core_cm4.h **** #define xPSR_C_Msk                         (1UL << xPSR_C_Pos)                            /*!< xPSR
 345:Drivers/CMSIS/Include/core_cm4.h **** 
 346:Drivers/CMSIS/Include/core_cm4.h **** #define xPSR_V_Pos                         28U                                            /*!< xPSR
 347:Drivers/CMSIS/Include/core_cm4.h **** #define xPSR_V_Msk                         (1UL << xPSR_V_Pos)                            /*!< xPSR
 348:Drivers/CMSIS/Include/core_cm4.h **** 
 349:Drivers/CMSIS/Include/core_cm4.h **** #define xPSR_Q_Pos                         27U                                            /*!< xPSR
 350:Drivers/CMSIS/Include/core_cm4.h **** #define xPSR_Q_Msk                         (1UL << xPSR_Q_Pos)                            /*!< xPSR
 351:Drivers/CMSIS/Include/core_cm4.h **** 
 352:Drivers/CMSIS/Include/core_cm4.h **** #define xPSR_ICI_IT_2_Pos                  25U                                            /*!< xPSR
 353:Drivers/CMSIS/Include/core_cm4.h **** #define xPSR_ICI_IT_2_Msk                  (3UL << xPSR_ICI_IT_2_Pos)                     /*!< xPSR
 354:Drivers/CMSIS/Include/core_cm4.h **** 
 355:Drivers/CMSIS/Include/core_cm4.h **** #define xPSR_T_Pos                         24U                                            /*!< xPSR
 356:Drivers/CMSIS/Include/core_cm4.h **** #define xPSR_T_Msk                         (1UL << xPSR_T_Pos)                            /*!< xPSR
 357:Drivers/CMSIS/Include/core_cm4.h **** 
 358:Drivers/CMSIS/Include/core_cm4.h **** #define xPSR_GE_Pos                        16U                                            /*!< xPSR
 359:Drivers/CMSIS/Include/core_cm4.h **** #define xPSR_GE_Msk                        (0xFUL << xPSR_GE_Pos)                         /*!< xPSR
 360:Drivers/CMSIS/Include/core_cm4.h **** 
 361:Drivers/CMSIS/Include/core_cm4.h **** #define xPSR_ICI_IT_1_Pos                  10U                                            /*!< xPSR
 362:Drivers/CMSIS/Include/core_cm4.h **** #define xPSR_ICI_IT_1_Msk                  (0x3FUL << xPSR_ICI_IT_1_Pos)                  /*!< xPSR
 363:Drivers/CMSIS/Include/core_cm4.h **** 
 364:Drivers/CMSIS/Include/core_cm4.h **** #define xPSR_ISR_Pos                        0U                                            /*!< xPSR
 365:Drivers/CMSIS/Include/core_cm4.h **** #define xPSR_ISR_Msk                       (0x1FFUL /*<< xPSR_ISR_Pos*/)                  /*!< xPSR
 366:Drivers/CMSIS/Include/core_cm4.h **** 
 367:Drivers/CMSIS/Include/core_cm4.h **** 
 368:Drivers/CMSIS/Include/core_cm4.h **** /**
 369:Drivers/CMSIS/Include/core_cm4.h ****   \brief  Union type to access the Control Registers (CONTROL).
 370:Drivers/CMSIS/Include/core_cm4.h ****  */
 371:Drivers/CMSIS/Include/core_cm4.h **** typedef union
 372:Drivers/CMSIS/Include/core_cm4.h **** {
 373:Drivers/CMSIS/Include/core_cm4.h ****   struct
 374:Drivers/CMSIS/Include/core_cm4.h ****   {
 375:Drivers/CMSIS/Include/core_cm4.h ****     uint32_t nPRIV:1;                    /*!< bit:      0  Execution privilege in Thread mode */
 376:Drivers/CMSIS/Include/core_cm4.h ****     uint32_t SPSEL:1;                    /*!< bit:      1  Stack to be used */
 377:Drivers/CMSIS/Include/core_cm4.h ****     uint32_t FPCA:1;                     /*!< bit:      2  FP extension active flag */
 378:Drivers/CMSIS/Include/core_cm4.h ****     uint32_t _reserved0:29;              /*!< bit:  3..31  Reserved */
 379:Drivers/CMSIS/Include/core_cm4.h ****   } b;                                   /*!< Structure used for bit  access */
 380:Drivers/CMSIS/Include/core_cm4.h ****   uint32_t w;                            /*!< Type      used for word access */
 381:Drivers/CMSIS/Include/core_cm4.h **** } CONTROL_Type;
 382:Drivers/CMSIS/Include/core_cm4.h **** 
 383:Drivers/CMSIS/Include/core_cm4.h **** /* CONTROL Register Definitions */
 384:Drivers/CMSIS/Include/core_cm4.h **** #define CONTROL_FPCA_Pos                    2U                                            /*!< CONT
 385:Drivers/CMSIS/Include/core_cm4.h **** #define CONTROL_FPCA_Msk                   (1UL << CONTROL_FPCA_Pos)                      /*!< CONT
 386:Drivers/CMSIS/Include/core_cm4.h **** 
 387:Drivers/CMSIS/Include/core_cm4.h **** #define CONTROL_SPSEL_Pos                   1U                                            /*!< CONT
 388:Drivers/CMSIS/Include/core_cm4.h **** #define CONTROL_SPSEL_Msk                  (1UL << CONTROL_SPSEL_Pos)                     /*!< CONT
 389:Drivers/CMSIS/Include/core_cm4.h **** 
 390:Drivers/CMSIS/Include/core_cm4.h **** #define CONTROL_nPRIV_Pos                   0U                                            /*!< CONT
 391:Drivers/CMSIS/Include/core_cm4.h **** #define CONTROL_nPRIV_Msk                  (1UL /*<< CONTROL_nPRIV_Pos*/)                 /*!< CONT
 392:Drivers/CMSIS/Include/core_cm4.h **** 
ARM GAS  C:\Users\neko2\AppData\Local\Temp\ccWG4MHW.s 			page 38


 393:Drivers/CMSIS/Include/core_cm4.h **** /*@} end of group CMSIS_CORE */
 394:Drivers/CMSIS/Include/core_cm4.h **** 
 395:Drivers/CMSIS/Include/core_cm4.h **** 
 396:Drivers/CMSIS/Include/core_cm4.h **** /**
 397:Drivers/CMSIS/Include/core_cm4.h ****   \ingroup    CMSIS_core_register
 398:Drivers/CMSIS/Include/core_cm4.h ****   \defgroup   CMSIS_NVIC  Nested Vectored Interrupt Controller (NVIC)
 399:Drivers/CMSIS/Include/core_cm4.h ****   \brief      Type definitions for the NVIC Registers
 400:Drivers/CMSIS/Include/core_cm4.h ****   @{
 401:Drivers/CMSIS/Include/core_cm4.h ****  */
 402:Drivers/CMSIS/Include/core_cm4.h **** 
 403:Drivers/CMSIS/Include/core_cm4.h **** /**
 404:Drivers/CMSIS/Include/core_cm4.h ****   \brief  Structure type to access the Nested Vectored Interrupt Controller (NVIC).
 405:Drivers/CMSIS/Include/core_cm4.h ****  */
 406:Drivers/CMSIS/Include/core_cm4.h **** typedef struct
 407:Drivers/CMSIS/Include/core_cm4.h **** {
 408:Drivers/CMSIS/Include/core_cm4.h ****   __IOM uint32_t ISER[8U];               /*!< Offset: 0x000 (R/W)  Interrupt Set Enable Register */
 409:Drivers/CMSIS/Include/core_cm4.h ****         uint32_t RESERVED0[24U];
 410:Drivers/CMSIS/Include/core_cm4.h ****   __IOM uint32_t ICER[8U];               /*!< Offset: 0x080 (R/W)  Interrupt Clear Enable Register 
 411:Drivers/CMSIS/Include/core_cm4.h ****         uint32_t RSERVED1[24U];
 412:Drivers/CMSIS/Include/core_cm4.h ****   __IOM uint32_t ISPR[8U];               /*!< Offset: 0x100 (R/W)  Interrupt Set Pending Register *
 413:Drivers/CMSIS/Include/core_cm4.h ****         uint32_t RESERVED2[24U];
 414:Drivers/CMSIS/Include/core_cm4.h ****   __IOM uint32_t ICPR[8U];               /*!< Offset: 0x180 (R/W)  Interrupt Clear Pending Register
 415:Drivers/CMSIS/Include/core_cm4.h ****         uint32_t RESERVED3[24U];
 416:Drivers/CMSIS/Include/core_cm4.h ****   __IOM uint32_t IABR[8U];               /*!< Offset: 0x200 (R/W)  Interrupt Active bit Register */
 417:Drivers/CMSIS/Include/core_cm4.h ****         uint32_t RESERVED4[56U];
 418:Drivers/CMSIS/Include/core_cm4.h ****   __IOM uint8_t  IP[240U];               /*!< Offset: 0x300 (R/W)  Interrupt Priority Register (8Bi
 419:Drivers/CMSIS/Include/core_cm4.h ****         uint32_t RESERVED5[644U];
 420:Drivers/CMSIS/Include/core_cm4.h ****   __OM  uint32_t STIR;                   /*!< Offset: 0xE00 ( /W)  Software Trigger Interrupt Regis
 421:Drivers/CMSIS/Include/core_cm4.h **** }  NVIC_Type;
 422:Drivers/CMSIS/Include/core_cm4.h **** 
 423:Drivers/CMSIS/Include/core_cm4.h **** /* Software Triggered Interrupt Register Definitions */
 424:Drivers/CMSIS/Include/core_cm4.h **** #define NVIC_STIR_INTID_Pos                 0U                                         /*!< STIR: I
 425:Drivers/CMSIS/Include/core_cm4.h **** #define NVIC_STIR_INTID_Msk                (0x1FFUL /*<< NVIC_STIR_INTID_Pos*/)        /*!< STIR: I
 426:Drivers/CMSIS/Include/core_cm4.h **** 
 427:Drivers/CMSIS/Include/core_cm4.h **** /*@} end of group CMSIS_NVIC */
 428:Drivers/CMSIS/Include/core_cm4.h **** 
 429:Drivers/CMSIS/Include/core_cm4.h **** 
 430:Drivers/CMSIS/Include/core_cm4.h **** /**
 431:Drivers/CMSIS/Include/core_cm4.h ****   \ingroup  CMSIS_core_register
 432:Drivers/CMSIS/Include/core_cm4.h ****   \defgroup CMSIS_SCB     System Control Block (SCB)
 433:Drivers/CMSIS/Include/core_cm4.h ****   \brief    Type definitions for the System Control Block Registers
 434:Drivers/CMSIS/Include/core_cm4.h ****   @{
 435:Drivers/CMSIS/Include/core_cm4.h ****  */
 436:Drivers/CMSIS/Include/core_cm4.h **** 
 437:Drivers/CMSIS/Include/core_cm4.h **** /**
 438:Drivers/CMSIS/Include/core_cm4.h ****   \brief  Structure type to access the System Control Block (SCB).
 439:Drivers/CMSIS/Include/core_cm4.h ****  */
 440:Drivers/CMSIS/Include/core_cm4.h **** typedef struct
 441:Drivers/CMSIS/Include/core_cm4.h **** {
 442:Drivers/CMSIS/Include/core_cm4.h ****   __IM  uint32_t CPUID;                  /*!< Offset: 0x000 (R/ )  CPUID Base Register */
 443:Drivers/CMSIS/Include/core_cm4.h ****   __IOM uint32_t ICSR;                   /*!< Offset: 0x004 (R/W)  Interrupt Control and State Regi
 444:Drivers/CMSIS/Include/core_cm4.h ****   __IOM uint32_t VTOR;                   /*!< Offset: 0x008 (R/W)  Vector Table Offset Register */
 445:Drivers/CMSIS/Include/core_cm4.h ****   __IOM uint32_t AIRCR;                  /*!< Offset: 0x00C (R/W)  Application Interrupt and Reset 
 446:Drivers/CMSIS/Include/core_cm4.h ****   __IOM uint32_t SCR;                    /*!< Offset: 0x010 (R/W)  System Control Register */
 447:Drivers/CMSIS/Include/core_cm4.h ****   __IOM uint32_t CCR;                    /*!< Offset: 0x014 (R/W)  Configuration Control Register *
 448:Drivers/CMSIS/Include/core_cm4.h ****   __IOM uint8_t  SHP[12U];               /*!< Offset: 0x018 (R/W)  System Handlers Priority Registe
 449:Drivers/CMSIS/Include/core_cm4.h ****   __IOM uint32_t SHCSR;                  /*!< Offset: 0x024 (R/W)  System Handler Control and State
ARM GAS  C:\Users\neko2\AppData\Local\Temp\ccWG4MHW.s 			page 39


 450:Drivers/CMSIS/Include/core_cm4.h ****   __IOM uint32_t CFSR;                   /*!< Offset: 0x028 (R/W)  Configurable Fault Status Regist
 451:Drivers/CMSIS/Include/core_cm4.h ****   __IOM uint32_t HFSR;                   /*!< Offset: 0x02C (R/W)  HardFault Status Register */
 452:Drivers/CMSIS/Include/core_cm4.h ****   __IOM uint32_t DFSR;                   /*!< Offset: 0x030 (R/W)  Debug Fault Status Register */
 453:Drivers/CMSIS/Include/core_cm4.h ****   __IOM uint32_t MMFAR;                  /*!< Offset: 0x034 (R/W)  MemManage Fault Address Register
 454:Drivers/CMSIS/Include/core_cm4.h ****   __IOM uint32_t BFAR;                   /*!< Offset: 0x038 (R/W)  BusFault Address Register */
 455:Drivers/CMSIS/Include/core_cm4.h ****   __IOM uint32_t AFSR;                   /*!< Offset: 0x03C (R/W)  Auxiliary Fault Status Register 
 456:Drivers/CMSIS/Include/core_cm4.h ****   __IM  uint32_t PFR[2U];                /*!< Offset: 0x040 (R/ )  Processor Feature Register */
 457:Drivers/CMSIS/Include/core_cm4.h ****   __IM  uint32_t DFR;                    /*!< Offset: 0x048 (R/ )  Debug Feature Register */
 458:Drivers/CMSIS/Include/core_cm4.h ****   __IM  uint32_t ADR;                    /*!< Offset: 0x04C (R/ )  Auxiliary Feature Register */
 459:Drivers/CMSIS/Include/core_cm4.h ****   __IM  uint32_t MMFR[4U];               /*!< Offset: 0x050 (R/ )  Memory Model Feature Register */
 460:Drivers/CMSIS/Include/core_cm4.h ****   __IM  uint32_t ISAR[5U];               /*!< Offset: 0x060 (R/ )  Instruction Set Attributes Regis
 461:Drivers/CMSIS/Include/core_cm4.h ****         uint32_t RESERVED0[5U];
 462:Drivers/CMSIS/Include/core_cm4.h ****   __IOM uint32_t CPACR;                  /*!< Offset: 0x088 (R/W)  Coprocessor Access Control Regis
 463:Drivers/CMSIS/Include/core_cm4.h **** } SCB_Type;
 464:Drivers/CMSIS/Include/core_cm4.h **** 
 465:Drivers/CMSIS/Include/core_cm4.h **** /* SCB CPUID Register Definitions */
 466:Drivers/CMSIS/Include/core_cm4.h **** #define SCB_CPUID_IMPLEMENTER_Pos          24U                                            /*!< SCB 
 467:Drivers/CMSIS/Include/core_cm4.h **** #define SCB_CPUID_IMPLEMENTER_Msk          (0xFFUL << SCB_CPUID_IMPLEMENTER_Pos)          /*!< SCB 
 468:Drivers/CMSIS/Include/core_cm4.h **** 
 469:Drivers/CMSIS/Include/core_cm4.h **** #define SCB_CPUID_VARIANT_Pos              20U                                            /*!< SCB 
 470:Drivers/CMSIS/Include/core_cm4.h **** #define SCB_CPUID_VARIANT_Msk              (0xFUL << SCB_CPUID_VARIANT_Pos)               /*!< SCB 
 471:Drivers/CMSIS/Include/core_cm4.h **** 
 472:Drivers/CMSIS/Include/core_cm4.h **** #define SCB_CPUID_ARCHITECTURE_Pos         16U                                            /*!< SCB 
 473:Drivers/CMSIS/Include/core_cm4.h **** #define SCB_CPUID_ARCHITECTURE_Msk         (0xFUL << SCB_CPUID_ARCHITECTURE_Pos)          /*!< SCB 
 474:Drivers/CMSIS/Include/core_cm4.h **** 
 475:Drivers/CMSIS/Include/core_cm4.h **** #define SCB_CPUID_PARTNO_Pos                4U                                            /*!< SCB 
 476:Drivers/CMSIS/Include/core_cm4.h **** #define SCB_CPUID_PARTNO_Msk               (0xFFFUL << SCB_CPUID_PARTNO_Pos)              /*!< SCB 
 477:Drivers/CMSIS/Include/core_cm4.h **** 
 478:Drivers/CMSIS/Include/core_cm4.h **** #define SCB_CPUID_REVISION_Pos              0U                                            /*!< SCB 
 479:Drivers/CMSIS/Include/core_cm4.h **** #define SCB_CPUID_REVISION_Msk             (0xFUL /*<< SCB_CPUID_REVISION_Pos*/)          /*!< SCB 
 480:Drivers/CMSIS/Include/core_cm4.h **** 
 481:Drivers/CMSIS/Include/core_cm4.h **** /* SCB Interrupt Control State Register Definitions */
 482:Drivers/CMSIS/Include/core_cm4.h **** #define SCB_ICSR_NMIPENDSET_Pos            31U                                            /*!< SCB 
 483:Drivers/CMSIS/Include/core_cm4.h **** #define SCB_ICSR_NMIPENDSET_Msk            (1UL << SCB_ICSR_NMIPENDSET_Pos)               /*!< SCB 
 484:Drivers/CMSIS/Include/core_cm4.h **** 
 485:Drivers/CMSIS/Include/core_cm4.h **** #define SCB_ICSR_PENDSVSET_Pos             28U                                            /*!< SCB 
 486:Drivers/CMSIS/Include/core_cm4.h **** #define SCB_ICSR_PENDSVSET_Msk             (1UL << SCB_ICSR_PENDSVSET_Pos)                /*!< SCB 
 487:Drivers/CMSIS/Include/core_cm4.h **** 
 488:Drivers/CMSIS/Include/core_cm4.h **** #define SCB_ICSR_PENDSVCLR_Pos             27U                                            /*!< SCB 
 489:Drivers/CMSIS/Include/core_cm4.h **** #define SCB_ICSR_PENDSVCLR_Msk             (1UL << SCB_ICSR_PENDSVCLR_Pos)                /*!< SCB 
 490:Drivers/CMSIS/Include/core_cm4.h **** 
 491:Drivers/CMSIS/Include/core_cm4.h **** #define SCB_ICSR_PENDSTSET_Pos             26U                                            /*!< SCB 
 492:Drivers/CMSIS/Include/core_cm4.h **** #define SCB_ICSR_PENDSTSET_Msk             (1UL << SCB_ICSR_PENDSTSET_Pos)                /*!< SCB 
 493:Drivers/CMSIS/Include/core_cm4.h **** 
 494:Drivers/CMSIS/Include/core_cm4.h **** #define SCB_ICSR_PENDSTCLR_Pos             25U                                            /*!< SCB 
 495:Drivers/CMSIS/Include/core_cm4.h **** #define SCB_ICSR_PENDSTCLR_Msk             (1UL << SCB_ICSR_PENDSTCLR_Pos)                /*!< SCB 
 496:Drivers/CMSIS/Include/core_cm4.h **** 
 497:Drivers/CMSIS/Include/core_cm4.h **** #define SCB_ICSR_ISRPREEMPT_Pos            23U                                            /*!< SCB 
 498:Drivers/CMSIS/Include/core_cm4.h **** #define SCB_ICSR_ISRPREEMPT_Msk            (1UL << SCB_ICSR_ISRPREEMPT_Pos)               /*!< SCB 
 499:Drivers/CMSIS/Include/core_cm4.h **** 
 500:Drivers/CMSIS/Include/core_cm4.h **** #define SCB_ICSR_ISRPENDING_Pos            22U                                            /*!< SCB 
 501:Drivers/CMSIS/Include/core_cm4.h **** #define SCB_ICSR_ISRPENDING_Msk            (1UL << SCB_ICSR_ISRPENDING_Pos)               /*!< SCB 
 502:Drivers/CMSIS/Include/core_cm4.h **** 
 503:Drivers/CMSIS/Include/core_cm4.h **** #define SCB_ICSR_VECTPENDING_Pos           12U                                            /*!< SCB 
 504:Drivers/CMSIS/Include/core_cm4.h **** #define SCB_ICSR_VECTPENDING_Msk           (0x1FFUL << SCB_ICSR_VECTPENDING_Pos)          /*!< SCB 
 505:Drivers/CMSIS/Include/core_cm4.h **** 
 506:Drivers/CMSIS/Include/core_cm4.h **** #define SCB_ICSR_RETTOBASE_Pos             11U                                            /*!< SCB 
ARM GAS  C:\Users\neko2\AppData\Local\Temp\ccWG4MHW.s 			page 40


 507:Drivers/CMSIS/Include/core_cm4.h **** #define SCB_ICSR_RETTOBASE_Msk             (1UL << SCB_ICSR_RETTOBASE_Pos)                /*!< SCB 
 508:Drivers/CMSIS/Include/core_cm4.h **** 
 509:Drivers/CMSIS/Include/core_cm4.h **** #define SCB_ICSR_VECTACTIVE_Pos             0U                                            /*!< SCB 
 510:Drivers/CMSIS/Include/core_cm4.h **** #define SCB_ICSR_VECTACTIVE_Msk            (0x1FFUL /*<< SCB_ICSR_VECTACTIVE_Pos*/)       /*!< SCB 
 511:Drivers/CMSIS/Include/core_cm4.h **** 
 512:Drivers/CMSIS/Include/core_cm4.h **** /* SCB Vector Table Offset Register Definitions */
 513:Drivers/CMSIS/Include/core_cm4.h **** #define SCB_VTOR_TBLOFF_Pos                 7U                                            /*!< SCB 
 514:Drivers/CMSIS/Include/core_cm4.h **** #define SCB_VTOR_TBLOFF_Msk                (0x1FFFFFFUL << SCB_VTOR_TBLOFF_Pos)           /*!< SCB 
 515:Drivers/CMSIS/Include/core_cm4.h **** 
 516:Drivers/CMSIS/Include/core_cm4.h **** /* SCB Application Interrupt and Reset Control Register Definitions */
 517:Drivers/CMSIS/Include/core_cm4.h **** #define SCB_AIRCR_VECTKEY_Pos              16U                                            /*!< SCB 
 518:Drivers/CMSIS/Include/core_cm4.h **** #define SCB_AIRCR_VECTKEY_Msk              (0xFFFFUL << SCB_AIRCR_VECTKEY_Pos)            /*!< SCB 
 519:Drivers/CMSIS/Include/core_cm4.h **** 
 520:Drivers/CMSIS/Include/core_cm4.h **** #define SCB_AIRCR_VECTKEYSTAT_Pos          16U                                            /*!< SCB 
 521:Drivers/CMSIS/Include/core_cm4.h **** #define SCB_AIRCR_VECTKEYSTAT_Msk          (0xFFFFUL << SCB_AIRCR_VECTKEYSTAT_Pos)        /*!< SCB 
 522:Drivers/CMSIS/Include/core_cm4.h **** 
 523:Drivers/CMSIS/Include/core_cm4.h **** #define SCB_AIRCR_ENDIANESS_Pos            15U                                            /*!< SCB 
 524:Drivers/CMSIS/Include/core_cm4.h **** #define SCB_AIRCR_ENDIANESS_Msk            (1UL << SCB_AIRCR_ENDIANESS_Pos)               /*!< SCB 
 525:Drivers/CMSIS/Include/core_cm4.h **** 
 526:Drivers/CMSIS/Include/core_cm4.h **** #define SCB_AIRCR_PRIGROUP_Pos              8U                                            /*!< SCB 
 527:Drivers/CMSIS/Include/core_cm4.h **** #define SCB_AIRCR_PRIGROUP_Msk             (7UL << SCB_AIRCR_PRIGROUP_Pos)                /*!< SCB 
 528:Drivers/CMSIS/Include/core_cm4.h **** 
 529:Drivers/CMSIS/Include/core_cm4.h **** #define SCB_AIRCR_SYSRESETREQ_Pos           2U                                            /*!< SCB 
 530:Drivers/CMSIS/Include/core_cm4.h **** #define SCB_AIRCR_SYSRESETREQ_Msk          (1UL << SCB_AIRCR_SYSRESETREQ_Pos)             /*!< SCB 
 531:Drivers/CMSIS/Include/core_cm4.h **** 
 532:Drivers/CMSIS/Include/core_cm4.h **** #define SCB_AIRCR_VECTCLRACTIVE_Pos         1U                                            /*!< SCB 
 533:Drivers/CMSIS/Include/core_cm4.h **** #define SCB_AIRCR_VECTCLRACTIVE_Msk        (1UL << SCB_AIRCR_VECTCLRACTIVE_Pos)           /*!< SCB 
 534:Drivers/CMSIS/Include/core_cm4.h **** 
 535:Drivers/CMSIS/Include/core_cm4.h **** #define SCB_AIRCR_VECTRESET_Pos             0U                                            /*!< SCB 
 536:Drivers/CMSIS/Include/core_cm4.h **** #define SCB_AIRCR_VECTRESET_Msk            (1UL /*<< SCB_AIRCR_VECTRESET_Pos*/)           /*!< SCB 
 537:Drivers/CMSIS/Include/core_cm4.h **** 
 538:Drivers/CMSIS/Include/core_cm4.h **** /* SCB System Control Register Definitions */
 539:Drivers/CMSIS/Include/core_cm4.h **** #define SCB_SCR_SEVONPEND_Pos               4U                                            /*!< SCB 
 540:Drivers/CMSIS/Include/core_cm4.h **** #define SCB_SCR_SEVONPEND_Msk              (1UL << SCB_SCR_SEVONPEND_Pos)                 /*!< SCB 
 541:Drivers/CMSIS/Include/core_cm4.h **** 
 542:Drivers/CMSIS/Include/core_cm4.h **** #define SCB_SCR_SLEEPDEEP_Pos               2U                                            /*!< SCB 
 543:Drivers/CMSIS/Include/core_cm4.h **** #define SCB_SCR_SLEEPDEEP_Msk              (1UL << SCB_SCR_SLEEPDEEP_Pos)                 /*!< SCB 
 544:Drivers/CMSIS/Include/core_cm4.h **** 
 545:Drivers/CMSIS/Include/core_cm4.h **** #define SCB_SCR_SLEEPONEXIT_Pos             1U                                            /*!< SCB 
 546:Drivers/CMSIS/Include/core_cm4.h **** #define SCB_SCR_SLEEPONEXIT_Msk            (1UL << SCB_SCR_SLEEPONEXIT_Pos)               /*!< SCB 
 547:Drivers/CMSIS/Include/core_cm4.h **** 
 548:Drivers/CMSIS/Include/core_cm4.h **** /* SCB Configuration Control Register Definitions */
 549:Drivers/CMSIS/Include/core_cm4.h **** #define SCB_CCR_STKALIGN_Pos                9U                                            /*!< SCB 
 550:Drivers/CMSIS/Include/core_cm4.h **** #define SCB_CCR_STKALIGN_Msk               (1UL << SCB_CCR_STKALIGN_Pos)                  /*!< SCB 
 551:Drivers/CMSIS/Include/core_cm4.h **** 
 552:Drivers/CMSIS/Include/core_cm4.h **** #define SCB_CCR_BFHFNMIGN_Pos               8U                                            /*!< SCB 
 553:Drivers/CMSIS/Include/core_cm4.h **** #define SCB_CCR_BFHFNMIGN_Msk              (1UL << SCB_CCR_BFHFNMIGN_Pos)                 /*!< SCB 
 554:Drivers/CMSIS/Include/core_cm4.h **** 
 555:Drivers/CMSIS/Include/core_cm4.h **** #define SCB_CCR_DIV_0_TRP_Pos               4U                                            /*!< SCB 
 556:Drivers/CMSIS/Include/core_cm4.h **** #define SCB_CCR_DIV_0_TRP_Msk              (1UL << SCB_CCR_DIV_0_TRP_Pos)                 /*!< SCB 
 557:Drivers/CMSIS/Include/core_cm4.h **** 
 558:Drivers/CMSIS/Include/core_cm4.h **** #define SCB_CCR_UNALIGN_TRP_Pos             3U                                            /*!< SCB 
 559:Drivers/CMSIS/Include/core_cm4.h **** #define SCB_CCR_UNALIGN_TRP_Msk            (1UL << SCB_CCR_UNALIGN_TRP_Pos)               /*!< SCB 
 560:Drivers/CMSIS/Include/core_cm4.h **** 
 561:Drivers/CMSIS/Include/core_cm4.h **** #define SCB_CCR_USERSETMPEND_Pos            1U                                            /*!< SCB 
 562:Drivers/CMSIS/Include/core_cm4.h **** #define SCB_CCR_USERSETMPEND_Msk           (1UL << SCB_CCR_USERSETMPEND_Pos)              /*!< SCB 
 563:Drivers/CMSIS/Include/core_cm4.h **** 
ARM GAS  C:\Users\neko2\AppData\Local\Temp\ccWG4MHW.s 			page 41


 564:Drivers/CMSIS/Include/core_cm4.h **** #define SCB_CCR_NONBASETHRDENA_Pos          0U                                            /*!< SCB 
 565:Drivers/CMSIS/Include/core_cm4.h **** #define SCB_CCR_NONBASETHRDENA_Msk         (1UL /*<< SCB_CCR_NONBASETHRDENA_Pos*/)        /*!< SCB 
 566:Drivers/CMSIS/Include/core_cm4.h **** 
 567:Drivers/CMSIS/Include/core_cm4.h **** /* SCB System Handler Control and State Register Definitions */
 568:Drivers/CMSIS/Include/core_cm4.h **** #define SCB_SHCSR_USGFAULTENA_Pos          18U                                            /*!< SCB 
 569:Drivers/CMSIS/Include/core_cm4.h **** #define SCB_SHCSR_USGFAULTENA_Msk          (1UL << SCB_SHCSR_USGFAULTENA_Pos)             /*!< SCB 
 570:Drivers/CMSIS/Include/core_cm4.h **** 
 571:Drivers/CMSIS/Include/core_cm4.h **** #define SCB_SHCSR_BUSFAULTENA_Pos          17U                                            /*!< SCB 
 572:Drivers/CMSIS/Include/core_cm4.h **** #define SCB_SHCSR_BUSFAULTENA_Msk          (1UL << SCB_SHCSR_BUSFAULTENA_Pos)             /*!< SCB 
 573:Drivers/CMSIS/Include/core_cm4.h **** 
 574:Drivers/CMSIS/Include/core_cm4.h **** #define SCB_SHCSR_MEMFAULTENA_Pos          16U                                            /*!< SCB 
 575:Drivers/CMSIS/Include/core_cm4.h **** #define SCB_SHCSR_MEMFAULTENA_Msk          (1UL << SCB_SHCSR_MEMFAULTENA_Pos)             /*!< SCB 
 576:Drivers/CMSIS/Include/core_cm4.h **** 
 577:Drivers/CMSIS/Include/core_cm4.h **** #define SCB_SHCSR_SVCALLPENDED_Pos         15U                                            /*!< SCB 
 578:Drivers/CMSIS/Include/core_cm4.h **** #define SCB_SHCSR_SVCALLPENDED_Msk         (1UL << SCB_SHCSR_SVCALLPENDED_Pos)            /*!< SCB 
 579:Drivers/CMSIS/Include/core_cm4.h **** 
 580:Drivers/CMSIS/Include/core_cm4.h **** #define SCB_SHCSR_BUSFAULTPENDED_Pos       14U                                            /*!< SCB 
 581:Drivers/CMSIS/Include/core_cm4.h **** #define SCB_SHCSR_BUSFAULTPENDED_Msk       (1UL << SCB_SHCSR_BUSFAULTPENDED_Pos)          /*!< SCB 
 582:Drivers/CMSIS/Include/core_cm4.h **** 
 583:Drivers/CMSIS/Include/core_cm4.h **** #define SCB_SHCSR_MEMFAULTPENDED_Pos       13U                                            /*!< SCB 
 584:Drivers/CMSIS/Include/core_cm4.h **** #define SCB_SHCSR_MEMFAULTPENDED_Msk       (1UL << SCB_SHCSR_MEMFAULTPENDED_Pos)          /*!< SCB 
 585:Drivers/CMSIS/Include/core_cm4.h **** 
 586:Drivers/CMSIS/Include/core_cm4.h **** #define SCB_SHCSR_USGFAULTPENDED_Pos       12U                                            /*!< SCB 
 587:Drivers/CMSIS/Include/core_cm4.h **** #define SCB_SHCSR_USGFAULTPENDED_Msk       (1UL << SCB_SHCSR_USGFAULTPENDED_Pos)          /*!< SCB 
 588:Drivers/CMSIS/Include/core_cm4.h **** 
 589:Drivers/CMSIS/Include/core_cm4.h **** #define SCB_SHCSR_SYSTICKACT_Pos           11U                                            /*!< SCB 
 590:Drivers/CMSIS/Include/core_cm4.h **** #define SCB_SHCSR_SYSTICKACT_Msk           (1UL << SCB_SHCSR_SYSTICKACT_Pos)              /*!< SCB 
 591:Drivers/CMSIS/Include/core_cm4.h **** 
 592:Drivers/CMSIS/Include/core_cm4.h **** #define SCB_SHCSR_PENDSVACT_Pos            10U                                            /*!< SCB 
 593:Drivers/CMSIS/Include/core_cm4.h **** #define SCB_SHCSR_PENDSVACT_Msk            (1UL << SCB_SHCSR_PENDSVACT_Pos)               /*!< SCB 
 594:Drivers/CMSIS/Include/core_cm4.h **** 
 595:Drivers/CMSIS/Include/core_cm4.h **** #define SCB_SHCSR_MONITORACT_Pos            8U                                            /*!< SCB 
 596:Drivers/CMSIS/Include/core_cm4.h **** #define SCB_SHCSR_MONITORACT_Msk           (1UL << SCB_SHCSR_MONITORACT_Pos)              /*!< SCB 
 597:Drivers/CMSIS/Include/core_cm4.h **** 
 598:Drivers/CMSIS/Include/core_cm4.h **** #define SCB_SHCSR_SVCALLACT_Pos             7U                                            /*!< SCB 
 599:Drivers/CMSIS/Include/core_cm4.h **** #define SCB_SHCSR_SVCALLACT_Msk            (1UL << SCB_SHCSR_SVCALLACT_Pos)               /*!< SCB 
 600:Drivers/CMSIS/Include/core_cm4.h **** 
 601:Drivers/CMSIS/Include/core_cm4.h **** #define SCB_SHCSR_USGFAULTACT_Pos           3U                                            /*!< SCB 
 602:Drivers/CMSIS/Include/core_cm4.h **** #define SCB_SHCSR_USGFAULTACT_Msk          (1UL << SCB_SHCSR_USGFAULTACT_Pos)             /*!< SCB 
 603:Drivers/CMSIS/Include/core_cm4.h **** 
 604:Drivers/CMSIS/Include/core_cm4.h **** #define SCB_SHCSR_BUSFAULTACT_Pos           1U                                            /*!< SCB 
 605:Drivers/CMSIS/Include/core_cm4.h **** #define SCB_SHCSR_BUSFAULTACT_Msk          (1UL << SCB_SHCSR_BUSFAULTACT_Pos)             /*!< SCB 
 606:Drivers/CMSIS/Include/core_cm4.h **** 
 607:Drivers/CMSIS/Include/core_cm4.h **** #define SCB_SHCSR_MEMFAULTACT_Pos           0U                                            /*!< SCB 
 608:Drivers/CMSIS/Include/core_cm4.h **** #define SCB_SHCSR_MEMFAULTACT_Msk          (1UL /*<< SCB_SHCSR_MEMFAULTACT_Pos*/)         /*!< SCB 
 609:Drivers/CMSIS/Include/core_cm4.h **** 
 610:Drivers/CMSIS/Include/core_cm4.h **** /* SCB Configurable Fault Status Register Definitions */
 611:Drivers/CMSIS/Include/core_cm4.h **** #define SCB_CFSR_USGFAULTSR_Pos            16U                                            /*!< SCB 
 612:Drivers/CMSIS/Include/core_cm4.h **** #define SCB_CFSR_USGFAULTSR_Msk            (0xFFFFUL << SCB_CFSR_USGFAULTSR_Pos)          /*!< SCB 
 613:Drivers/CMSIS/Include/core_cm4.h **** 
 614:Drivers/CMSIS/Include/core_cm4.h **** #define SCB_CFSR_BUSFAULTSR_Pos             8U                                            /*!< SCB 
 615:Drivers/CMSIS/Include/core_cm4.h **** #define SCB_CFSR_BUSFAULTSR_Msk            (0xFFUL << SCB_CFSR_BUSFAULTSR_Pos)            /*!< SCB 
 616:Drivers/CMSIS/Include/core_cm4.h **** 
 617:Drivers/CMSIS/Include/core_cm4.h **** #define SCB_CFSR_MEMFAULTSR_Pos             0U                                            /*!< SCB 
 618:Drivers/CMSIS/Include/core_cm4.h **** #define SCB_CFSR_MEMFAULTSR_Msk            (0xFFUL /*<< SCB_CFSR_MEMFAULTSR_Pos*/)        /*!< SCB 
 619:Drivers/CMSIS/Include/core_cm4.h **** 
 620:Drivers/CMSIS/Include/core_cm4.h **** /* MemManage Fault Status Register (part of SCB Configurable Fault Status Register) */
ARM GAS  C:\Users\neko2\AppData\Local\Temp\ccWG4MHW.s 			page 42


 621:Drivers/CMSIS/Include/core_cm4.h **** #define SCB_CFSR_MMARVALID_Pos             (SCB_SHCSR_MEMFAULTACT_Pos + 7U)               /*!< SCB 
 622:Drivers/CMSIS/Include/core_cm4.h **** #define SCB_CFSR_MMARVALID_Msk             (1UL << SCB_CFSR_MMARVALID_Pos)                /*!< SCB 
 623:Drivers/CMSIS/Include/core_cm4.h **** 
 624:Drivers/CMSIS/Include/core_cm4.h **** #define SCB_CFSR_MLSPERR_Pos               (SCB_SHCSR_MEMFAULTACT_Pos + 5U)               /*!< SCB 
 625:Drivers/CMSIS/Include/core_cm4.h **** #define SCB_CFSR_MLSPERR_Msk               (1UL << SCB_CFSR_MLSPERR_Pos)                  /*!< SCB 
 626:Drivers/CMSIS/Include/core_cm4.h **** 
 627:Drivers/CMSIS/Include/core_cm4.h **** #define SCB_CFSR_MSTKERR_Pos               (SCB_SHCSR_MEMFAULTACT_Pos + 4U)               /*!< SCB 
 628:Drivers/CMSIS/Include/core_cm4.h **** #define SCB_CFSR_MSTKERR_Msk               (1UL << SCB_CFSR_MSTKERR_Pos)                  /*!< SCB 
 629:Drivers/CMSIS/Include/core_cm4.h **** 
 630:Drivers/CMSIS/Include/core_cm4.h **** #define SCB_CFSR_MUNSTKERR_Pos             (SCB_SHCSR_MEMFAULTACT_Pos + 3U)               /*!< SCB 
 631:Drivers/CMSIS/Include/core_cm4.h **** #define SCB_CFSR_MUNSTKERR_Msk             (1UL << SCB_CFSR_MUNSTKERR_Pos)                /*!< SCB 
 632:Drivers/CMSIS/Include/core_cm4.h **** 
 633:Drivers/CMSIS/Include/core_cm4.h **** #define SCB_CFSR_DACCVIOL_Pos              (SCB_SHCSR_MEMFAULTACT_Pos + 1U)               /*!< SCB 
 634:Drivers/CMSIS/Include/core_cm4.h **** #define SCB_CFSR_DACCVIOL_Msk              (1UL << SCB_CFSR_DACCVIOL_Pos)                 /*!< SCB 
 635:Drivers/CMSIS/Include/core_cm4.h **** 
 636:Drivers/CMSIS/Include/core_cm4.h **** #define SCB_CFSR_IACCVIOL_Pos              (SCB_SHCSR_MEMFAULTACT_Pos + 0U)               /*!< SCB 
 637:Drivers/CMSIS/Include/core_cm4.h **** #define SCB_CFSR_IACCVIOL_Msk              (1UL /*<< SCB_CFSR_IACCVIOL_Pos*/)             /*!< SCB 
 638:Drivers/CMSIS/Include/core_cm4.h **** 
 639:Drivers/CMSIS/Include/core_cm4.h **** /* BusFault Status Register (part of SCB Configurable Fault Status Register) */
 640:Drivers/CMSIS/Include/core_cm4.h **** #define SCB_CFSR_BFARVALID_Pos            (SCB_CFSR_BUSFAULTSR_Pos + 7U)                  /*!< SCB 
 641:Drivers/CMSIS/Include/core_cm4.h **** #define SCB_CFSR_BFARVALID_Msk            (1UL << SCB_CFSR_BFARVALID_Pos)                 /*!< SCB 
 642:Drivers/CMSIS/Include/core_cm4.h **** 
 643:Drivers/CMSIS/Include/core_cm4.h **** #define SCB_CFSR_LSPERR_Pos               (SCB_CFSR_BUSFAULTSR_Pos + 5U)                  /*!< SCB 
 644:Drivers/CMSIS/Include/core_cm4.h **** #define SCB_CFSR_LSPERR_Msk               (1UL << SCB_CFSR_LSPERR_Pos)                    /*!< SCB 
 645:Drivers/CMSIS/Include/core_cm4.h **** 
 646:Drivers/CMSIS/Include/core_cm4.h **** #define SCB_CFSR_STKERR_Pos               (SCB_CFSR_BUSFAULTSR_Pos + 4U)                  /*!< SCB 
 647:Drivers/CMSIS/Include/core_cm4.h **** #define SCB_CFSR_STKERR_Msk               (1UL << SCB_CFSR_STKERR_Pos)                    /*!< SCB 
 648:Drivers/CMSIS/Include/core_cm4.h **** 
 649:Drivers/CMSIS/Include/core_cm4.h **** #define SCB_CFSR_UNSTKERR_Pos             (SCB_CFSR_BUSFAULTSR_Pos + 3U)                  /*!< SCB 
 650:Drivers/CMSIS/Include/core_cm4.h **** #define SCB_CFSR_UNSTKERR_Msk             (1UL << SCB_CFSR_UNSTKERR_Pos)                  /*!< SCB 
 651:Drivers/CMSIS/Include/core_cm4.h **** 
 652:Drivers/CMSIS/Include/core_cm4.h **** #define SCB_CFSR_IMPRECISERR_Pos          (SCB_CFSR_BUSFAULTSR_Pos + 2U)                  /*!< SCB 
 653:Drivers/CMSIS/Include/core_cm4.h **** #define SCB_CFSR_IMPRECISERR_Msk          (1UL << SCB_CFSR_IMPRECISERR_Pos)               /*!< SCB 
 654:Drivers/CMSIS/Include/core_cm4.h **** 
 655:Drivers/CMSIS/Include/core_cm4.h **** #define SCB_CFSR_PRECISERR_Pos            (SCB_CFSR_BUSFAULTSR_Pos + 1U)                  /*!< SCB 
 656:Drivers/CMSIS/Include/core_cm4.h **** #define SCB_CFSR_PRECISERR_Msk            (1UL << SCB_CFSR_PRECISERR_Pos)                 /*!< SCB 
 657:Drivers/CMSIS/Include/core_cm4.h **** 
 658:Drivers/CMSIS/Include/core_cm4.h **** #define SCB_CFSR_IBUSERR_Pos              (SCB_CFSR_BUSFAULTSR_Pos + 0U)                  /*!< SCB 
 659:Drivers/CMSIS/Include/core_cm4.h **** #define SCB_CFSR_IBUSERR_Msk              (1UL << SCB_CFSR_IBUSERR_Pos)                   /*!< SCB 
 660:Drivers/CMSIS/Include/core_cm4.h **** 
 661:Drivers/CMSIS/Include/core_cm4.h **** /* UsageFault Status Register (part of SCB Configurable Fault Status Register) */
 662:Drivers/CMSIS/Include/core_cm4.h **** #define SCB_CFSR_DIVBYZERO_Pos            (SCB_CFSR_USGFAULTSR_Pos + 9U)                  /*!< SCB 
 663:Drivers/CMSIS/Include/core_cm4.h **** #define SCB_CFSR_DIVBYZERO_Msk            (1UL << SCB_CFSR_DIVBYZERO_Pos)                 /*!< SCB 
 664:Drivers/CMSIS/Include/core_cm4.h **** 
 665:Drivers/CMSIS/Include/core_cm4.h **** #define SCB_CFSR_UNALIGNED_Pos            (SCB_CFSR_USGFAULTSR_Pos + 8U)                  /*!< SCB 
 666:Drivers/CMSIS/Include/core_cm4.h **** #define SCB_CFSR_UNALIGNED_Msk            (1UL << SCB_CFSR_UNALIGNED_Pos)                 /*!< SCB 
 667:Drivers/CMSIS/Include/core_cm4.h **** 
 668:Drivers/CMSIS/Include/core_cm4.h **** #define SCB_CFSR_NOCP_Pos                 (SCB_CFSR_USGFAULTSR_Pos + 3U)                  /*!< SCB 
 669:Drivers/CMSIS/Include/core_cm4.h **** #define SCB_CFSR_NOCP_Msk                 (1UL << SCB_CFSR_NOCP_Pos)                      /*!< SCB 
 670:Drivers/CMSIS/Include/core_cm4.h **** 
 671:Drivers/CMSIS/Include/core_cm4.h **** #define SCB_CFSR_INVPC_Pos                (SCB_CFSR_USGFAULTSR_Pos + 2U)                  /*!< SCB 
 672:Drivers/CMSIS/Include/core_cm4.h **** #define SCB_CFSR_INVPC_Msk                (1UL << SCB_CFSR_INVPC_Pos)                     /*!< SCB 
 673:Drivers/CMSIS/Include/core_cm4.h **** 
 674:Drivers/CMSIS/Include/core_cm4.h **** #define SCB_CFSR_INVSTATE_Pos             (SCB_CFSR_USGFAULTSR_Pos + 1U)                  /*!< SCB 
 675:Drivers/CMSIS/Include/core_cm4.h **** #define SCB_CFSR_INVSTATE_Msk             (1UL << SCB_CFSR_INVSTATE_Pos)                  /*!< SCB 
 676:Drivers/CMSIS/Include/core_cm4.h **** 
 677:Drivers/CMSIS/Include/core_cm4.h **** #define SCB_CFSR_UNDEFINSTR_Pos           (SCB_CFSR_USGFAULTSR_Pos + 0U)                  /*!< SCB 
ARM GAS  C:\Users\neko2\AppData\Local\Temp\ccWG4MHW.s 			page 43


 678:Drivers/CMSIS/Include/core_cm4.h **** #define SCB_CFSR_UNDEFINSTR_Msk           (1UL << SCB_CFSR_UNDEFINSTR_Pos)                /*!< SCB 
 679:Drivers/CMSIS/Include/core_cm4.h **** 
 680:Drivers/CMSIS/Include/core_cm4.h **** /* SCB Hard Fault Status Register Definitions */
 681:Drivers/CMSIS/Include/core_cm4.h **** #define SCB_HFSR_DEBUGEVT_Pos              31U                                            /*!< SCB 
 682:Drivers/CMSIS/Include/core_cm4.h **** #define SCB_HFSR_DEBUGEVT_Msk              (1UL << SCB_HFSR_DEBUGEVT_Pos)                 /*!< SCB 
 683:Drivers/CMSIS/Include/core_cm4.h **** 
 684:Drivers/CMSIS/Include/core_cm4.h **** #define SCB_HFSR_FORCED_Pos                30U                                            /*!< SCB 
 685:Drivers/CMSIS/Include/core_cm4.h **** #define SCB_HFSR_FORCED_Msk                (1UL << SCB_HFSR_FORCED_Pos)                   /*!< SCB 
 686:Drivers/CMSIS/Include/core_cm4.h **** 
 687:Drivers/CMSIS/Include/core_cm4.h **** #define SCB_HFSR_VECTTBL_Pos                1U                                            /*!< SCB 
 688:Drivers/CMSIS/Include/core_cm4.h **** #define SCB_HFSR_VECTTBL_Msk               (1UL << SCB_HFSR_VECTTBL_Pos)                  /*!< SCB 
 689:Drivers/CMSIS/Include/core_cm4.h **** 
 690:Drivers/CMSIS/Include/core_cm4.h **** /* SCB Debug Fault Status Register Definitions */
 691:Drivers/CMSIS/Include/core_cm4.h **** #define SCB_DFSR_EXTERNAL_Pos               4U                                            /*!< SCB 
 692:Drivers/CMSIS/Include/core_cm4.h **** #define SCB_DFSR_EXTERNAL_Msk              (1UL << SCB_DFSR_EXTERNAL_Pos)                 /*!< SCB 
 693:Drivers/CMSIS/Include/core_cm4.h **** 
 694:Drivers/CMSIS/Include/core_cm4.h **** #define SCB_DFSR_VCATCH_Pos                 3U                                            /*!< SCB 
 695:Drivers/CMSIS/Include/core_cm4.h **** #define SCB_DFSR_VCATCH_Msk                (1UL << SCB_DFSR_VCATCH_Pos)                   /*!< SCB 
 696:Drivers/CMSIS/Include/core_cm4.h **** 
 697:Drivers/CMSIS/Include/core_cm4.h **** #define SCB_DFSR_DWTTRAP_Pos                2U                                            /*!< SCB 
 698:Drivers/CMSIS/Include/core_cm4.h **** #define SCB_DFSR_DWTTRAP_Msk               (1UL << SCB_DFSR_DWTTRAP_Pos)                  /*!< SCB 
 699:Drivers/CMSIS/Include/core_cm4.h **** 
 700:Drivers/CMSIS/Include/core_cm4.h **** #define SCB_DFSR_BKPT_Pos                   1U                                            /*!< SCB 
 701:Drivers/CMSIS/Include/core_cm4.h **** #define SCB_DFSR_BKPT_Msk                  (1UL << SCB_DFSR_BKPT_Pos)                     /*!< SCB 
 702:Drivers/CMSIS/Include/core_cm4.h **** 
 703:Drivers/CMSIS/Include/core_cm4.h **** #define SCB_DFSR_HALTED_Pos                 0U                                            /*!< SCB 
 704:Drivers/CMSIS/Include/core_cm4.h **** #define SCB_DFSR_HALTED_Msk                (1UL /*<< SCB_DFSR_HALTED_Pos*/)               /*!< SCB 
 705:Drivers/CMSIS/Include/core_cm4.h **** 
 706:Drivers/CMSIS/Include/core_cm4.h **** /*@} end of group CMSIS_SCB */
 707:Drivers/CMSIS/Include/core_cm4.h **** 
 708:Drivers/CMSIS/Include/core_cm4.h **** 
 709:Drivers/CMSIS/Include/core_cm4.h **** /**
 710:Drivers/CMSIS/Include/core_cm4.h ****   \ingroup  CMSIS_core_register
 711:Drivers/CMSIS/Include/core_cm4.h ****   \defgroup CMSIS_SCnSCB System Controls not in SCB (SCnSCB)
 712:Drivers/CMSIS/Include/core_cm4.h ****   \brief    Type definitions for the System Control and ID Register not in the SCB
 713:Drivers/CMSIS/Include/core_cm4.h ****   @{
 714:Drivers/CMSIS/Include/core_cm4.h ****  */
 715:Drivers/CMSIS/Include/core_cm4.h **** 
 716:Drivers/CMSIS/Include/core_cm4.h **** /**
 717:Drivers/CMSIS/Include/core_cm4.h ****   \brief  Structure type to access the System Control and ID Register not in the SCB.
 718:Drivers/CMSIS/Include/core_cm4.h ****  */
 719:Drivers/CMSIS/Include/core_cm4.h **** typedef struct
 720:Drivers/CMSIS/Include/core_cm4.h **** {
 721:Drivers/CMSIS/Include/core_cm4.h ****         uint32_t RESERVED0[1U];
 722:Drivers/CMSIS/Include/core_cm4.h ****   __IM  uint32_t ICTR;                   /*!< Offset: 0x004 (R/ )  Interrupt Controller Type Regist
 723:Drivers/CMSIS/Include/core_cm4.h ****   __IOM uint32_t ACTLR;                  /*!< Offset: 0x008 (R/W)  Auxiliary Control Register */
 724:Drivers/CMSIS/Include/core_cm4.h **** } SCnSCB_Type;
 725:Drivers/CMSIS/Include/core_cm4.h **** 
 726:Drivers/CMSIS/Include/core_cm4.h **** /* Interrupt Controller Type Register Definitions */
 727:Drivers/CMSIS/Include/core_cm4.h **** #define SCnSCB_ICTR_INTLINESNUM_Pos         0U                                         /*!< ICTR: I
 728:Drivers/CMSIS/Include/core_cm4.h **** #define SCnSCB_ICTR_INTLINESNUM_Msk        (0xFUL /*<< SCnSCB_ICTR_INTLINESNUM_Pos*/)  /*!< ICTR: I
 729:Drivers/CMSIS/Include/core_cm4.h **** 
 730:Drivers/CMSIS/Include/core_cm4.h **** /* Auxiliary Control Register Definitions */
 731:Drivers/CMSIS/Include/core_cm4.h **** #define SCnSCB_ACTLR_DISOOFP_Pos            9U                                         /*!< ACTLR: 
 732:Drivers/CMSIS/Include/core_cm4.h **** #define SCnSCB_ACTLR_DISOOFP_Msk           (1UL << SCnSCB_ACTLR_DISOOFP_Pos)           /*!< ACTLR: 
 733:Drivers/CMSIS/Include/core_cm4.h **** 
 734:Drivers/CMSIS/Include/core_cm4.h **** #define SCnSCB_ACTLR_DISFPCA_Pos            8U                                         /*!< ACTLR: 
ARM GAS  C:\Users\neko2\AppData\Local\Temp\ccWG4MHW.s 			page 44


 735:Drivers/CMSIS/Include/core_cm4.h **** #define SCnSCB_ACTLR_DISFPCA_Msk           (1UL << SCnSCB_ACTLR_DISFPCA_Pos)           /*!< ACTLR: 
 736:Drivers/CMSIS/Include/core_cm4.h **** 
 737:Drivers/CMSIS/Include/core_cm4.h **** #define SCnSCB_ACTLR_DISFOLD_Pos            2U                                         /*!< ACTLR: 
 738:Drivers/CMSIS/Include/core_cm4.h **** #define SCnSCB_ACTLR_DISFOLD_Msk           (1UL << SCnSCB_ACTLR_DISFOLD_Pos)           /*!< ACTLR: 
 739:Drivers/CMSIS/Include/core_cm4.h **** 
 740:Drivers/CMSIS/Include/core_cm4.h **** #define SCnSCB_ACTLR_DISDEFWBUF_Pos         1U                                         /*!< ACTLR: 
 741:Drivers/CMSIS/Include/core_cm4.h **** #define SCnSCB_ACTLR_DISDEFWBUF_Msk        (1UL << SCnSCB_ACTLR_DISDEFWBUF_Pos)        /*!< ACTLR: 
 742:Drivers/CMSIS/Include/core_cm4.h **** 
 743:Drivers/CMSIS/Include/core_cm4.h **** #define SCnSCB_ACTLR_DISMCYCINT_Pos         0U                                         /*!< ACTLR: 
 744:Drivers/CMSIS/Include/core_cm4.h **** #define SCnSCB_ACTLR_DISMCYCINT_Msk        (1UL /*<< SCnSCB_ACTLR_DISMCYCINT_Pos*/)    /*!< ACTLR: 
 745:Drivers/CMSIS/Include/core_cm4.h **** 
 746:Drivers/CMSIS/Include/core_cm4.h **** /*@} end of group CMSIS_SCnotSCB */
 747:Drivers/CMSIS/Include/core_cm4.h **** 
 748:Drivers/CMSIS/Include/core_cm4.h **** 
 749:Drivers/CMSIS/Include/core_cm4.h **** /**
 750:Drivers/CMSIS/Include/core_cm4.h ****   \ingroup  CMSIS_core_register
 751:Drivers/CMSIS/Include/core_cm4.h ****   \defgroup CMSIS_SysTick     System Tick Timer (SysTick)
 752:Drivers/CMSIS/Include/core_cm4.h ****   \brief    Type definitions for the System Timer Registers.
 753:Drivers/CMSIS/Include/core_cm4.h ****   @{
 754:Drivers/CMSIS/Include/core_cm4.h ****  */
 755:Drivers/CMSIS/Include/core_cm4.h **** 
 756:Drivers/CMSIS/Include/core_cm4.h **** /**
 757:Drivers/CMSIS/Include/core_cm4.h ****   \brief  Structure type to access the System Timer (SysTick).
 758:Drivers/CMSIS/Include/core_cm4.h ****  */
 759:Drivers/CMSIS/Include/core_cm4.h **** typedef struct
 760:Drivers/CMSIS/Include/core_cm4.h **** {
 761:Drivers/CMSIS/Include/core_cm4.h ****   __IOM uint32_t CTRL;                   /*!< Offset: 0x000 (R/W)  SysTick Control and Status Regis
 762:Drivers/CMSIS/Include/core_cm4.h ****   __IOM uint32_t LOAD;                   /*!< Offset: 0x004 (R/W)  SysTick Reload Value Register */
 763:Drivers/CMSIS/Include/core_cm4.h ****   __IOM uint32_t VAL;                    /*!< Offset: 0x008 (R/W)  SysTick Current Value Register *
 764:Drivers/CMSIS/Include/core_cm4.h ****   __IM  uint32_t CALIB;                  /*!< Offset: 0x00C (R/ )  SysTick Calibration Register */
 765:Drivers/CMSIS/Include/core_cm4.h **** } SysTick_Type;
 766:Drivers/CMSIS/Include/core_cm4.h **** 
 767:Drivers/CMSIS/Include/core_cm4.h **** /* SysTick Control / Status Register Definitions */
 768:Drivers/CMSIS/Include/core_cm4.h **** #define SysTick_CTRL_COUNTFLAG_Pos         16U                                            /*!< SysT
 769:Drivers/CMSIS/Include/core_cm4.h **** #define SysTick_CTRL_COUNTFLAG_Msk         (1UL << SysTick_CTRL_COUNTFLAG_Pos)            /*!< SysT
 770:Drivers/CMSIS/Include/core_cm4.h **** 
 771:Drivers/CMSIS/Include/core_cm4.h **** #define SysTick_CTRL_CLKSOURCE_Pos          2U                                            /*!< SysT
 772:Drivers/CMSIS/Include/core_cm4.h **** #define SysTick_CTRL_CLKSOURCE_Msk         (1UL << SysTick_CTRL_CLKSOURCE_Pos)            /*!< SysT
 773:Drivers/CMSIS/Include/core_cm4.h **** 
 774:Drivers/CMSIS/Include/core_cm4.h **** #define SysTick_CTRL_TICKINT_Pos            1U                                            /*!< SysT
 775:Drivers/CMSIS/Include/core_cm4.h **** #define SysTick_CTRL_TICKINT_Msk           (1UL << SysTick_CTRL_TICKINT_Pos)              /*!< SysT
 776:Drivers/CMSIS/Include/core_cm4.h **** 
 777:Drivers/CMSIS/Include/core_cm4.h **** #define SysTick_CTRL_ENABLE_Pos             0U                                            /*!< SysT
 778:Drivers/CMSIS/Include/core_cm4.h **** #define SysTick_CTRL_ENABLE_Msk            (1UL /*<< SysTick_CTRL_ENABLE_Pos*/)           /*!< SysT
 779:Drivers/CMSIS/Include/core_cm4.h **** 
 780:Drivers/CMSIS/Include/core_cm4.h **** /* SysTick Reload Register Definitions */
 781:Drivers/CMSIS/Include/core_cm4.h **** #define SysTick_LOAD_RELOAD_Pos             0U                                            /*!< SysT
 782:Drivers/CMSIS/Include/core_cm4.h **** #define SysTick_LOAD_RELOAD_Msk            (0xFFFFFFUL /*<< SysTick_LOAD_RELOAD_Pos*/)    /*!< SysT
 783:Drivers/CMSIS/Include/core_cm4.h **** 
 784:Drivers/CMSIS/Include/core_cm4.h **** /* SysTick Current Register Definitions */
 785:Drivers/CMSIS/Include/core_cm4.h **** #define SysTick_VAL_CURRENT_Pos             0U                                            /*!< SysT
 786:Drivers/CMSIS/Include/core_cm4.h **** #define SysTick_VAL_CURRENT_Msk            (0xFFFFFFUL /*<< SysTick_VAL_CURRENT_Pos*/)    /*!< SysT
 787:Drivers/CMSIS/Include/core_cm4.h **** 
 788:Drivers/CMSIS/Include/core_cm4.h **** /* SysTick Calibration Register Definitions */
 789:Drivers/CMSIS/Include/core_cm4.h **** #define SysTick_CALIB_NOREF_Pos            31U                                            /*!< SysT
 790:Drivers/CMSIS/Include/core_cm4.h **** #define SysTick_CALIB_NOREF_Msk            (1UL << SysTick_CALIB_NOREF_Pos)               /*!< SysT
 791:Drivers/CMSIS/Include/core_cm4.h **** 
ARM GAS  C:\Users\neko2\AppData\Local\Temp\ccWG4MHW.s 			page 45


 792:Drivers/CMSIS/Include/core_cm4.h **** #define SysTick_CALIB_SKEW_Pos             30U                                            /*!< SysT
 793:Drivers/CMSIS/Include/core_cm4.h **** #define SysTick_CALIB_SKEW_Msk             (1UL << SysTick_CALIB_SKEW_Pos)                /*!< SysT
 794:Drivers/CMSIS/Include/core_cm4.h **** 
 795:Drivers/CMSIS/Include/core_cm4.h **** #define SysTick_CALIB_TENMS_Pos             0U                                            /*!< SysT
 796:Drivers/CMSIS/Include/core_cm4.h **** #define SysTick_CALIB_TENMS_Msk            (0xFFFFFFUL /*<< SysTick_CALIB_TENMS_Pos*/)    /*!< SysT
 797:Drivers/CMSIS/Include/core_cm4.h **** 
 798:Drivers/CMSIS/Include/core_cm4.h **** /*@} end of group CMSIS_SysTick */
 799:Drivers/CMSIS/Include/core_cm4.h **** 
 800:Drivers/CMSIS/Include/core_cm4.h **** 
 801:Drivers/CMSIS/Include/core_cm4.h **** /**
 802:Drivers/CMSIS/Include/core_cm4.h ****   \ingroup  CMSIS_core_register
 803:Drivers/CMSIS/Include/core_cm4.h ****   \defgroup CMSIS_ITM     Instrumentation Trace Macrocell (ITM)
 804:Drivers/CMSIS/Include/core_cm4.h ****   \brief    Type definitions for the Instrumentation Trace Macrocell (ITM)
 805:Drivers/CMSIS/Include/core_cm4.h ****   @{
 806:Drivers/CMSIS/Include/core_cm4.h ****  */
 807:Drivers/CMSIS/Include/core_cm4.h **** 
 808:Drivers/CMSIS/Include/core_cm4.h **** /**
 809:Drivers/CMSIS/Include/core_cm4.h ****   \brief  Structure type to access the Instrumentation Trace Macrocell Register (ITM).
 810:Drivers/CMSIS/Include/core_cm4.h ****  */
 811:Drivers/CMSIS/Include/core_cm4.h **** typedef struct
 812:Drivers/CMSIS/Include/core_cm4.h **** {
 813:Drivers/CMSIS/Include/core_cm4.h ****   __OM  union
 814:Drivers/CMSIS/Include/core_cm4.h ****   {
 815:Drivers/CMSIS/Include/core_cm4.h ****     __OM  uint8_t    u8;                 /*!< Offset: 0x000 ( /W)  ITM Stimulus Port 8-bit */
 816:Drivers/CMSIS/Include/core_cm4.h ****     __OM  uint16_t   u16;                /*!< Offset: 0x000 ( /W)  ITM Stimulus Port 16-bit */
 817:Drivers/CMSIS/Include/core_cm4.h ****     __OM  uint32_t   u32;                /*!< Offset: 0x000 ( /W)  ITM Stimulus Port 32-bit */
 818:Drivers/CMSIS/Include/core_cm4.h ****   }  PORT [32U];                         /*!< Offset: 0x000 ( /W)  ITM Stimulus Port Registers */
 819:Drivers/CMSIS/Include/core_cm4.h ****         uint32_t RESERVED0[864U];
 820:Drivers/CMSIS/Include/core_cm4.h ****   __IOM uint32_t TER;                    /*!< Offset: 0xE00 (R/W)  ITM Trace Enable Register */
 821:Drivers/CMSIS/Include/core_cm4.h ****         uint32_t RESERVED1[15U];
 822:Drivers/CMSIS/Include/core_cm4.h ****   __IOM uint32_t TPR;                    /*!< Offset: 0xE40 (R/W)  ITM Trace Privilege Register */
 823:Drivers/CMSIS/Include/core_cm4.h ****         uint32_t RESERVED2[15U];
 824:Drivers/CMSIS/Include/core_cm4.h ****   __IOM uint32_t TCR;                    /*!< Offset: 0xE80 (R/W)  ITM Trace Control Register */
 825:Drivers/CMSIS/Include/core_cm4.h ****         uint32_t RESERVED3[29U];
 826:Drivers/CMSIS/Include/core_cm4.h ****   __OM  uint32_t IWR;                    /*!< Offset: 0xEF8 ( /W)  ITM Integration Write Register *
 827:Drivers/CMSIS/Include/core_cm4.h ****   __IM  uint32_t IRR;                    /*!< Offset: 0xEFC (R/ )  ITM Integration Read Register */
 828:Drivers/CMSIS/Include/core_cm4.h ****   __IOM uint32_t IMCR;                   /*!< Offset: 0xF00 (R/W)  ITM Integration Mode Control Reg
 829:Drivers/CMSIS/Include/core_cm4.h ****         uint32_t RESERVED4[43U];
 830:Drivers/CMSIS/Include/core_cm4.h ****   __OM  uint32_t LAR;                    /*!< Offset: 0xFB0 ( /W)  ITM Lock Access Register */
 831:Drivers/CMSIS/Include/core_cm4.h ****   __IM  uint32_t LSR;                    /*!< Offset: 0xFB4 (R/ )  ITM Lock Status Register */
 832:Drivers/CMSIS/Include/core_cm4.h ****         uint32_t RESERVED5[6U];
 833:Drivers/CMSIS/Include/core_cm4.h ****   __IM  uint32_t PID4;                   /*!< Offset: 0xFD0 (R/ )  ITM Peripheral Identification Re
 834:Drivers/CMSIS/Include/core_cm4.h ****   __IM  uint32_t PID5;                   /*!< Offset: 0xFD4 (R/ )  ITM Peripheral Identification Re
 835:Drivers/CMSIS/Include/core_cm4.h ****   __IM  uint32_t PID6;                   /*!< Offset: 0xFD8 (R/ )  ITM Peripheral Identification Re
 836:Drivers/CMSIS/Include/core_cm4.h ****   __IM  uint32_t PID7;                   /*!< Offset: 0xFDC (R/ )  ITM Peripheral Identification Re
 837:Drivers/CMSIS/Include/core_cm4.h ****   __IM  uint32_t PID0;                   /*!< Offset: 0xFE0 (R/ )  ITM Peripheral Identification Re
 838:Drivers/CMSIS/Include/core_cm4.h ****   __IM  uint32_t PID1;                   /*!< Offset: 0xFE4 (R/ )  ITM Peripheral Identification Re
 839:Drivers/CMSIS/Include/core_cm4.h ****   __IM  uint32_t PID2;                   /*!< Offset: 0xFE8 (R/ )  ITM Peripheral Identification Re
 840:Drivers/CMSIS/Include/core_cm4.h ****   __IM  uint32_t PID3;                   /*!< Offset: 0xFEC (R/ )  ITM Peripheral Identification Re
 841:Drivers/CMSIS/Include/core_cm4.h ****   __IM  uint32_t CID0;                   /*!< Offset: 0xFF0 (R/ )  ITM Component  Identification Re
 842:Drivers/CMSIS/Include/core_cm4.h ****   __IM  uint32_t CID1;                   /*!< Offset: 0xFF4 (R/ )  ITM Component  Identification Re
 843:Drivers/CMSIS/Include/core_cm4.h ****   __IM  uint32_t CID2;                   /*!< Offset: 0xFF8 (R/ )  ITM Component  Identification Re
 844:Drivers/CMSIS/Include/core_cm4.h ****   __IM  uint32_t CID3;                   /*!< Offset: 0xFFC (R/ )  ITM Component  Identification Re
 845:Drivers/CMSIS/Include/core_cm4.h **** } ITM_Type;
 846:Drivers/CMSIS/Include/core_cm4.h **** 
 847:Drivers/CMSIS/Include/core_cm4.h **** /* ITM Trace Privilege Register Definitions */
 848:Drivers/CMSIS/Include/core_cm4.h **** #define ITM_TPR_PRIVMASK_Pos                0U                                            /*!< ITM 
ARM GAS  C:\Users\neko2\AppData\Local\Temp\ccWG4MHW.s 			page 46


 849:Drivers/CMSIS/Include/core_cm4.h **** #define ITM_TPR_PRIVMASK_Msk               (0xFFFFFFFFUL /*<< ITM_TPR_PRIVMASK_Pos*/)     /*!< ITM 
 850:Drivers/CMSIS/Include/core_cm4.h **** 
 851:Drivers/CMSIS/Include/core_cm4.h **** /* ITM Trace Control Register Definitions */
 852:Drivers/CMSIS/Include/core_cm4.h **** #define ITM_TCR_BUSY_Pos                   23U                                            /*!< ITM 
 853:Drivers/CMSIS/Include/core_cm4.h **** #define ITM_TCR_BUSY_Msk                   (1UL << ITM_TCR_BUSY_Pos)                      /*!< ITM 
 854:Drivers/CMSIS/Include/core_cm4.h **** 
 855:Drivers/CMSIS/Include/core_cm4.h **** #define ITM_TCR_TraceBusID_Pos             16U                                            /*!< ITM 
 856:Drivers/CMSIS/Include/core_cm4.h **** #define ITM_TCR_TraceBusID_Msk             (0x7FUL << ITM_TCR_TraceBusID_Pos)             /*!< ITM 
 857:Drivers/CMSIS/Include/core_cm4.h **** 
 858:Drivers/CMSIS/Include/core_cm4.h **** #define ITM_TCR_GTSFREQ_Pos                10U                                            /*!< ITM 
 859:Drivers/CMSIS/Include/core_cm4.h **** #define ITM_TCR_GTSFREQ_Msk                (3UL << ITM_TCR_GTSFREQ_Pos)                   /*!< ITM 
 860:Drivers/CMSIS/Include/core_cm4.h **** 
 861:Drivers/CMSIS/Include/core_cm4.h **** #define ITM_TCR_TSPrescale_Pos              8U                                            /*!< ITM 
 862:Drivers/CMSIS/Include/core_cm4.h **** #define ITM_TCR_TSPrescale_Msk             (3UL << ITM_TCR_TSPrescale_Pos)                /*!< ITM 
 863:Drivers/CMSIS/Include/core_cm4.h **** 
 864:Drivers/CMSIS/Include/core_cm4.h **** #define ITM_TCR_SWOENA_Pos                  4U                                            /*!< ITM 
 865:Drivers/CMSIS/Include/core_cm4.h **** #define ITM_TCR_SWOENA_Msk                 (1UL << ITM_TCR_SWOENA_Pos)                    /*!< ITM 
 866:Drivers/CMSIS/Include/core_cm4.h **** 
 867:Drivers/CMSIS/Include/core_cm4.h **** #define ITM_TCR_DWTENA_Pos                  3U                                            /*!< ITM 
 868:Drivers/CMSIS/Include/core_cm4.h **** #define ITM_TCR_DWTENA_Msk                 (1UL << ITM_TCR_DWTENA_Pos)                    /*!< ITM 
 869:Drivers/CMSIS/Include/core_cm4.h **** 
 870:Drivers/CMSIS/Include/core_cm4.h **** #define ITM_TCR_SYNCENA_Pos                 2U                                            /*!< ITM 
 871:Drivers/CMSIS/Include/core_cm4.h **** #define ITM_TCR_SYNCENA_Msk                (1UL << ITM_TCR_SYNCENA_Pos)                   /*!< ITM 
 872:Drivers/CMSIS/Include/core_cm4.h **** 
 873:Drivers/CMSIS/Include/core_cm4.h **** #define ITM_TCR_TSENA_Pos                   1U                                            /*!< ITM 
 874:Drivers/CMSIS/Include/core_cm4.h **** #define ITM_TCR_TSENA_Msk                  (1UL << ITM_TCR_TSENA_Pos)                     /*!< ITM 
 875:Drivers/CMSIS/Include/core_cm4.h **** 
 876:Drivers/CMSIS/Include/core_cm4.h **** #define ITM_TCR_ITMENA_Pos                  0U                                            /*!< ITM 
 877:Drivers/CMSIS/Include/core_cm4.h **** #define ITM_TCR_ITMENA_Msk                 (1UL /*<< ITM_TCR_ITMENA_Pos*/)                /*!< ITM 
 878:Drivers/CMSIS/Include/core_cm4.h **** 
 879:Drivers/CMSIS/Include/core_cm4.h **** /* ITM Integration Write Register Definitions */
 880:Drivers/CMSIS/Include/core_cm4.h **** #define ITM_IWR_ATVALIDM_Pos                0U                                            /*!< ITM 
 881:Drivers/CMSIS/Include/core_cm4.h **** #define ITM_IWR_ATVALIDM_Msk               (1UL /*<< ITM_IWR_ATVALIDM_Pos*/)              /*!< ITM 
 882:Drivers/CMSIS/Include/core_cm4.h **** 
 883:Drivers/CMSIS/Include/core_cm4.h **** /* ITM Integration Read Register Definitions */
 884:Drivers/CMSIS/Include/core_cm4.h **** #define ITM_IRR_ATREADYM_Pos                0U                                            /*!< ITM 
 885:Drivers/CMSIS/Include/core_cm4.h **** #define ITM_IRR_ATREADYM_Msk               (1UL /*<< ITM_IRR_ATREADYM_Pos*/)              /*!< ITM 
 886:Drivers/CMSIS/Include/core_cm4.h **** 
 887:Drivers/CMSIS/Include/core_cm4.h **** /* ITM Integration Mode Control Register Definitions */
 888:Drivers/CMSIS/Include/core_cm4.h **** #define ITM_IMCR_INTEGRATION_Pos            0U                                            /*!< ITM 
 889:Drivers/CMSIS/Include/core_cm4.h **** #define ITM_IMCR_INTEGRATION_Msk           (1UL /*<< ITM_IMCR_INTEGRATION_Pos*/)          /*!< ITM 
 890:Drivers/CMSIS/Include/core_cm4.h **** 
 891:Drivers/CMSIS/Include/core_cm4.h **** /* ITM Lock Status Register Definitions */
 892:Drivers/CMSIS/Include/core_cm4.h **** #define ITM_LSR_ByteAcc_Pos                 2U                                            /*!< ITM 
 893:Drivers/CMSIS/Include/core_cm4.h **** #define ITM_LSR_ByteAcc_Msk                (1UL << ITM_LSR_ByteAcc_Pos)                   /*!< ITM 
 894:Drivers/CMSIS/Include/core_cm4.h **** 
 895:Drivers/CMSIS/Include/core_cm4.h **** #define ITM_LSR_Access_Pos                  1U                                            /*!< ITM 
 896:Drivers/CMSIS/Include/core_cm4.h **** #define ITM_LSR_Access_Msk                 (1UL << ITM_LSR_Access_Pos)                    /*!< ITM 
 897:Drivers/CMSIS/Include/core_cm4.h **** 
 898:Drivers/CMSIS/Include/core_cm4.h **** #define ITM_LSR_Present_Pos                 0U                                            /*!< ITM 
 899:Drivers/CMSIS/Include/core_cm4.h **** #define ITM_LSR_Present_Msk                (1UL /*<< ITM_LSR_Present_Pos*/)               /*!< ITM 
 900:Drivers/CMSIS/Include/core_cm4.h **** 
 901:Drivers/CMSIS/Include/core_cm4.h **** /*@}*/ /* end of group CMSIS_ITM */
 902:Drivers/CMSIS/Include/core_cm4.h **** 
 903:Drivers/CMSIS/Include/core_cm4.h **** 
 904:Drivers/CMSIS/Include/core_cm4.h **** /**
 905:Drivers/CMSIS/Include/core_cm4.h ****   \ingroup  CMSIS_core_register
ARM GAS  C:\Users\neko2\AppData\Local\Temp\ccWG4MHW.s 			page 47


 906:Drivers/CMSIS/Include/core_cm4.h ****   \defgroup CMSIS_DWT     Data Watchpoint and Trace (DWT)
 907:Drivers/CMSIS/Include/core_cm4.h ****   \brief    Type definitions for the Data Watchpoint and Trace (DWT)
 908:Drivers/CMSIS/Include/core_cm4.h ****   @{
 909:Drivers/CMSIS/Include/core_cm4.h ****  */
 910:Drivers/CMSIS/Include/core_cm4.h **** 
 911:Drivers/CMSIS/Include/core_cm4.h **** /**
 912:Drivers/CMSIS/Include/core_cm4.h ****   \brief  Structure type to access the Data Watchpoint and Trace Register (DWT).
 913:Drivers/CMSIS/Include/core_cm4.h ****  */
 914:Drivers/CMSIS/Include/core_cm4.h **** typedef struct
 915:Drivers/CMSIS/Include/core_cm4.h **** {
 916:Drivers/CMSIS/Include/core_cm4.h ****   __IOM uint32_t CTRL;                   /*!< Offset: 0x000 (R/W)  Control Register */
 917:Drivers/CMSIS/Include/core_cm4.h ****   __IOM uint32_t CYCCNT;                 /*!< Offset: 0x004 (R/W)  Cycle Count Register */
 918:Drivers/CMSIS/Include/core_cm4.h ****   __IOM uint32_t CPICNT;                 /*!< Offset: 0x008 (R/W)  CPI Count Register */
 919:Drivers/CMSIS/Include/core_cm4.h ****   __IOM uint32_t EXCCNT;                 /*!< Offset: 0x00C (R/W)  Exception Overhead Count Registe
 920:Drivers/CMSIS/Include/core_cm4.h ****   __IOM uint32_t SLEEPCNT;               /*!< Offset: 0x010 (R/W)  Sleep Count Register */
 921:Drivers/CMSIS/Include/core_cm4.h ****   __IOM uint32_t LSUCNT;                 /*!< Offset: 0x014 (R/W)  LSU Count Register */
 922:Drivers/CMSIS/Include/core_cm4.h ****   __IOM uint32_t FOLDCNT;                /*!< Offset: 0x018 (R/W)  Folded-instruction Count Registe
 923:Drivers/CMSIS/Include/core_cm4.h ****   __IM  uint32_t PCSR;                   /*!< Offset: 0x01C (R/ )  Program Counter Sample Register 
 924:Drivers/CMSIS/Include/core_cm4.h ****   __IOM uint32_t COMP0;                  /*!< Offset: 0x020 (R/W)  Comparator Register 0 */
 925:Drivers/CMSIS/Include/core_cm4.h ****   __IOM uint32_t MASK0;                  /*!< Offset: 0x024 (R/W)  Mask Register 0 */
 926:Drivers/CMSIS/Include/core_cm4.h ****   __IOM uint32_t FUNCTION0;              /*!< Offset: 0x028 (R/W)  Function Register 0 */
 927:Drivers/CMSIS/Include/core_cm4.h ****         uint32_t RESERVED0[1U];
 928:Drivers/CMSIS/Include/core_cm4.h ****   __IOM uint32_t COMP1;                  /*!< Offset: 0x030 (R/W)  Comparator Register 1 */
 929:Drivers/CMSIS/Include/core_cm4.h ****   __IOM uint32_t MASK1;                  /*!< Offset: 0x034 (R/W)  Mask Register 1 */
 930:Drivers/CMSIS/Include/core_cm4.h ****   __IOM uint32_t FUNCTION1;              /*!< Offset: 0x038 (R/W)  Function Register 1 */
 931:Drivers/CMSIS/Include/core_cm4.h ****         uint32_t RESERVED1[1U];
 932:Drivers/CMSIS/Include/core_cm4.h ****   __IOM uint32_t COMP2;                  /*!< Offset: 0x040 (R/W)  Comparator Register 2 */
 933:Drivers/CMSIS/Include/core_cm4.h ****   __IOM uint32_t MASK2;                  /*!< Offset: 0x044 (R/W)  Mask Register 2 */
 934:Drivers/CMSIS/Include/core_cm4.h ****   __IOM uint32_t FUNCTION2;              /*!< Offset: 0x048 (R/W)  Function Register 2 */
 935:Drivers/CMSIS/Include/core_cm4.h ****         uint32_t RESERVED2[1U];
 936:Drivers/CMSIS/Include/core_cm4.h ****   __IOM uint32_t COMP3;                  /*!< Offset: 0x050 (R/W)  Comparator Register 3 */
 937:Drivers/CMSIS/Include/core_cm4.h ****   __IOM uint32_t MASK3;                  /*!< Offset: 0x054 (R/W)  Mask Register 3 */
 938:Drivers/CMSIS/Include/core_cm4.h ****   __IOM uint32_t FUNCTION3;              /*!< Offset: 0x058 (R/W)  Function Register 3 */
 939:Drivers/CMSIS/Include/core_cm4.h **** } DWT_Type;
 940:Drivers/CMSIS/Include/core_cm4.h **** 
 941:Drivers/CMSIS/Include/core_cm4.h **** /* DWT Control Register Definitions */
 942:Drivers/CMSIS/Include/core_cm4.h **** #define DWT_CTRL_NUMCOMP_Pos               28U                                         /*!< DWT CTR
 943:Drivers/CMSIS/Include/core_cm4.h **** #define DWT_CTRL_NUMCOMP_Msk               (0xFUL << DWT_CTRL_NUMCOMP_Pos)             /*!< DWT CTR
 944:Drivers/CMSIS/Include/core_cm4.h **** 
 945:Drivers/CMSIS/Include/core_cm4.h **** #define DWT_CTRL_NOTRCPKT_Pos              27U                                         /*!< DWT CTR
 946:Drivers/CMSIS/Include/core_cm4.h **** #define DWT_CTRL_NOTRCPKT_Msk              (0x1UL << DWT_CTRL_NOTRCPKT_Pos)            /*!< DWT CTR
 947:Drivers/CMSIS/Include/core_cm4.h **** 
 948:Drivers/CMSIS/Include/core_cm4.h **** #define DWT_CTRL_NOEXTTRIG_Pos             26U                                         /*!< DWT CTR
 949:Drivers/CMSIS/Include/core_cm4.h **** #define DWT_CTRL_NOEXTTRIG_Msk             (0x1UL << DWT_CTRL_NOEXTTRIG_Pos)           /*!< DWT CTR
 950:Drivers/CMSIS/Include/core_cm4.h **** 
 951:Drivers/CMSIS/Include/core_cm4.h **** #define DWT_CTRL_NOCYCCNT_Pos              25U                                         /*!< DWT CTR
 952:Drivers/CMSIS/Include/core_cm4.h **** #define DWT_CTRL_NOCYCCNT_Msk              (0x1UL << DWT_CTRL_NOCYCCNT_Pos)            /*!< DWT CTR
 953:Drivers/CMSIS/Include/core_cm4.h **** 
 954:Drivers/CMSIS/Include/core_cm4.h **** #define DWT_CTRL_NOPRFCNT_Pos              24U                                         /*!< DWT CTR
 955:Drivers/CMSIS/Include/core_cm4.h **** #define DWT_CTRL_NOPRFCNT_Msk              (0x1UL << DWT_CTRL_NOPRFCNT_Pos)            /*!< DWT CTR
 956:Drivers/CMSIS/Include/core_cm4.h **** 
 957:Drivers/CMSIS/Include/core_cm4.h **** #define DWT_CTRL_CYCEVTENA_Pos             22U                                         /*!< DWT CTR
 958:Drivers/CMSIS/Include/core_cm4.h **** #define DWT_CTRL_CYCEVTENA_Msk             (0x1UL << DWT_CTRL_CYCEVTENA_Pos)           /*!< DWT CTR
 959:Drivers/CMSIS/Include/core_cm4.h **** 
 960:Drivers/CMSIS/Include/core_cm4.h **** #define DWT_CTRL_FOLDEVTENA_Pos            21U                                         /*!< DWT CTR
 961:Drivers/CMSIS/Include/core_cm4.h **** #define DWT_CTRL_FOLDEVTENA_Msk            (0x1UL << DWT_CTRL_FOLDEVTENA_Pos)          /*!< DWT CTR
 962:Drivers/CMSIS/Include/core_cm4.h **** 
ARM GAS  C:\Users\neko2\AppData\Local\Temp\ccWG4MHW.s 			page 48


 963:Drivers/CMSIS/Include/core_cm4.h **** #define DWT_CTRL_LSUEVTENA_Pos             20U                                         /*!< DWT CTR
 964:Drivers/CMSIS/Include/core_cm4.h **** #define DWT_CTRL_LSUEVTENA_Msk             (0x1UL << DWT_CTRL_LSUEVTENA_Pos)           /*!< DWT CTR
 965:Drivers/CMSIS/Include/core_cm4.h **** 
 966:Drivers/CMSIS/Include/core_cm4.h **** #define DWT_CTRL_SLEEPEVTENA_Pos           19U                                         /*!< DWT CTR
 967:Drivers/CMSIS/Include/core_cm4.h **** #define DWT_CTRL_SLEEPEVTENA_Msk           (0x1UL << DWT_CTRL_SLEEPEVTENA_Pos)         /*!< DWT CTR
 968:Drivers/CMSIS/Include/core_cm4.h **** 
 969:Drivers/CMSIS/Include/core_cm4.h **** #define DWT_CTRL_EXCEVTENA_Pos             18U                                         /*!< DWT CTR
 970:Drivers/CMSIS/Include/core_cm4.h **** #define DWT_CTRL_EXCEVTENA_Msk             (0x1UL << DWT_CTRL_EXCEVTENA_Pos)           /*!< DWT CTR
 971:Drivers/CMSIS/Include/core_cm4.h **** 
 972:Drivers/CMSIS/Include/core_cm4.h **** #define DWT_CTRL_CPIEVTENA_Pos             17U                                         /*!< DWT CTR
 973:Drivers/CMSIS/Include/core_cm4.h **** #define DWT_CTRL_CPIEVTENA_Msk             (0x1UL << DWT_CTRL_CPIEVTENA_Pos)           /*!< DWT CTR
 974:Drivers/CMSIS/Include/core_cm4.h **** 
 975:Drivers/CMSIS/Include/core_cm4.h **** #define DWT_CTRL_EXCTRCENA_Pos             16U                                         /*!< DWT CTR
 976:Drivers/CMSIS/Include/core_cm4.h **** #define DWT_CTRL_EXCTRCENA_Msk             (0x1UL << DWT_CTRL_EXCTRCENA_Pos)           /*!< DWT CTR
 977:Drivers/CMSIS/Include/core_cm4.h **** 
 978:Drivers/CMSIS/Include/core_cm4.h **** #define DWT_CTRL_PCSAMPLENA_Pos            12U                                         /*!< DWT CTR
 979:Drivers/CMSIS/Include/core_cm4.h **** #define DWT_CTRL_PCSAMPLENA_Msk            (0x1UL << DWT_CTRL_PCSAMPLENA_Pos)          /*!< DWT CTR
 980:Drivers/CMSIS/Include/core_cm4.h **** 
 981:Drivers/CMSIS/Include/core_cm4.h **** #define DWT_CTRL_SYNCTAP_Pos               10U                                         /*!< DWT CTR
 982:Drivers/CMSIS/Include/core_cm4.h **** #define DWT_CTRL_SYNCTAP_Msk               (0x3UL << DWT_CTRL_SYNCTAP_Pos)             /*!< DWT CTR
 983:Drivers/CMSIS/Include/core_cm4.h **** 
 984:Drivers/CMSIS/Include/core_cm4.h **** #define DWT_CTRL_CYCTAP_Pos                 9U                                         /*!< DWT CTR
 985:Drivers/CMSIS/Include/core_cm4.h **** #define DWT_CTRL_CYCTAP_Msk                (0x1UL << DWT_CTRL_CYCTAP_Pos)              /*!< DWT CTR
 986:Drivers/CMSIS/Include/core_cm4.h **** 
 987:Drivers/CMSIS/Include/core_cm4.h **** #define DWT_CTRL_POSTINIT_Pos               5U                                         /*!< DWT CTR
 988:Drivers/CMSIS/Include/core_cm4.h **** #define DWT_CTRL_POSTINIT_Msk              (0xFUL << DWT_CTRL_POSTINIT_Pos)            /*!< DWT CTR
 989:Drivers/CMSIS/Include/core_cm4.h **** 
 990:Drivers/CMSIS/Include/core_cm4.h **** #define DWT_CTRL_POSTPRESET_Pos             1U                                         /*!< DWT CTR
 991:Drivers/CMSIS/Include/core_cm4.h **** #define DWT_CTRL_POSTPRESET_Msk            (0xFUL << DWT_CTRL_POSTPRESET_Pos)          /*!< DWT CTR
 992:Drivers/CMSIS/Include/core_cm4.h **** 
 993:Drivers/CMSIS/Include/core_cm4.h **** #define DWT_CTRL_CYCCNTENA_Pos              0U                                         /*!< DWT CTR
 994:Drivers/CMSIS/Include/core_cm4.h **** #define DWT_CTRL_CYCCNTENA_Msk             (0x1UL /*<< DWT_CTRL_CYCCNTENA_Pos*/)       /*!< DWT CTR
 995:Drivers/CMSIS/Include/core_cm4.h **** 
 996:Drivers/CMSIS/Include/core_cm4.h **** /* DWT CPI Count Register Definitions */
 997:Drivers/CMSIS/Include/core_cm4.h **** #define DWT_CPICNT_CPICNT_Pos               0U                                         /*!< DWT CPI
 998:Drivers/CMSIS/Include/core_cm4.h **** #define DWT_CPICNT_CPICNT_Msk              (0xFFUL /*<< DWT_CPICNT_CPICNT_Pos*/)       /*!< DWT CPI
 999:Drivers/CMSIS/Include/core_cm4.h **** 
1000:Drivers/CMSIS/Include/core_cm4.h **** /* DWT Exception Overhead Count Register Definitions */
1001:Drivers/CMSIS/Include/core_cm4.h **** #define DWT_EXCCNT_EXCCNT_Pos               0U                                         /*!< DWT EXC
1002:Drivers/CMSIS/Include/core_cm4.h **** #define DWT_EXCCNT_EXCCNT_Msk              (0xFFUL /*<< DWT_EXCCNT_EXCCNT_Pos*/)       /*!< DWT EXC
1003:Drivers/CMSIS/Include/core_cm4.h **** 
1004:Drivers/CMSIS/Include/core_cm4.h **** /* DWT Sleep Count Register Definitions */
1005:Drivers/CMSIS/Include/core_cm4.h **** #define DWT_SLEEPCNT_SLEEPCNT_Pos           0U                                         /*!< DWT SLE
1006:Drivers/CMSIS/Include/core_cm4.h **** #define DWT_SLEEPCNT_SLEEPCNT_Msk          (0xFFUL /*<< DWT_SLEEPCNT_SLEEPCNT_Pos*/)   /*!< DWT SLE
1007:Drivers/CMSIS/Include/core_cm4.h **** 
1008:Drivers/CMSIS/Include/core_cm4.h **** /* DWT LSU Count Register Definitions */
1009:Drivers/CMSIS/Include/core_cm4.h **** #define DWT_LSUCNT_LSUCNT_Pos               0U                                         /*!< DWT LSU
1010:Drivers/CMSIS/Include/core_cm4.h **** #define DWT_LSUCNT_LSUCNT_Msk              (0xFFUL /*<< DWT_LSUCNT_LSUCNT_Pos*/)       /*!< DWT LSU
1011:Drivers/CMSIS/Include/core_cm4.h **** 
1012:Drivers/CMSIS/Include/core_cm4.h **** /* DWT Folded-instruction Count Register Definitions */
1013:Drivers/CMSIS/Include/core_cm4.h **** #define DWT_FOLDCNT_FOLDCNT_Pos             0U                                         /*!< DWT FOL
1014:Drivers/CMSIS/Include/core_cm4.h **** #define DWT_FOLDCNT_FOLDCNT_Msk            (0xFFUL /*<< DWT_FOLDCNT_FOLDCNT_Pos*/)     /*!< DWT FOL
1015:Drivers/CMSIS/Include/core_cm4.h **** 
1016:Drivers/CMSIS/Include/core_cm4.h **** /* DWT Comparator Mask Register Definitions */
1017:Drivers/CMSIS/Include/core_cm4.h **** #define DWT_MASK_MASK_Pos                   0U                                         /*!< DWT MAS
1018:Drivers/CMSIS/Include/core_cm4.h **** #define DWT_MASK_MASK_Msk                  (0x1FUL /*<< DWT_MASK_MASK_Pos*/)           /*!< DWT MAS
1019:Drivers/CMSIS/Include/core_cm4.h **** 
ARM GAS  C:\Users\neko2\AppData\Local\Temp\ccWG4MHW.s 			page 49


1020:Drivers/CMSIS/Include/core_cm4.h **** /* DWT Comparator Function Register Definitions */
1021:Drivers/CMSIS/Include/core_cm4.h **** #define DWT_FUNCTION_MATCHED_Pos           24U                                         /*!< DWT FUN
1022:Drivers/CMSIS/Include/core_cm4.h **** #define DWT_FUNCTION_MATCHED_Msk           (0x1UL << DWT_FUNCTION_MATCHED_Pos)         /*!< DWT FUN
1023:Drivers/CMSIS/Include/core_cm4.h **** 
1024:Drivers/CMSIS/Include/core_cm4.h **** #define DWT_FUNCTION_DATAVADDR1_Pos        16U                                         /*!< DWT FUN
1025:Drivers/CMSIS/Include/core_cm4.h **** #define DWT_FUNCTION_DATAVADDR1_Msk        (0xFUL << DWT_FUNCTION_DATAVADDR1_Pos)      /*!< DWT FUN
1026:Drivers/CMSIS/Include/core_cm4.h **** 
1027:Drivers/CMSIS/Include/core_cm4.h **** #define DWT_FUNCTION_DATAVADDR0_Pos        12U                                         /*!< DWT FUN
1028:Drivers/CMSIS/Include/core_cm4.h **** #define DWT_FUNCTION_DATAVADDR0_Msk        (0xFUL << DWT_FUNCTION_DATAVADDR0_Pos)      /*!< DWT FUN
1029:Drivers/CMSIS/Include/core_cm4.h **** 
1030:Drivers/CMSIS/Include/core_cm4.h **** #define DWT_FUNCTION_DATAVSIZE_Pos         10U                                         /*!< DWT FUN
1031:Drivers/CMSIS/Include/core_cm4.h **** #define DWT_FUNCTION_DATAVSIZE_Msk         (0x3UL << DWT_FUNCTION_DATAVSIZE_Pos)       /*!< DWT FUN
1032:Drivers/CMSIS/Include/core_cm4.h **** 
1033:Drivers/CMSIS/Include/core_cm4.h **** #define DWT_FUNCTION_LNK1ENA_Pos            9U                                         /*!< DWT FUN
1034:Drivers/CMSIS/Include/core_cm4.h **** #define DWT_FUNCTION_LNK1ENA_Msk           (0x1UL << DWT_FUNCTION_LNK1ENA_Pos)         /*!< DWT FUN
1035:Drivers/CMSIS/Include/core_cm4.h **** 
1036:Drivers/CMSIS/Include/core_cm4.h **** #define DWT_FUNCTION_DATAVMATCH_Pos         8U                                         /*!< DWT FUN
1037:Drivers/CMSIS/Include/core_cm4.h **** #define DWT_FUNCTION_DATAVMATCH_Msk        (0x1UL << DWT_FUNCTION_DATAVMATCH_Pos)      /*!< DWT FUN
1038:Drivers/CMSIS/Include/core_cm4.h **** 
1039:Drivers/CMSIS/Include/core_cm4.h **** #define DWT_FUNCTION_CYCMATCH_Pos           7U                                         /*!< DWT FUN
1040:Drivers/CMSIS/Include/core_cm4.h **** #define DWT_FUNCTION_CYCMATCH_Msk          (0x1UL << DWT_FUNCTION_CYCMATCH_Pos)        /*!< DWT FUN
1041:Drivers/CMSIS/Include/core_cm4.h **** 
1042:Drivers/CMSIS/Include/core_cm4.h **** #define DWT_FUNCTION_EMITRANGE_Pos          5U                                         /*!< DWT FUN
1043:Drivers/CMSIS/Include/core_cm4.h **** #define DWT_FUNCTION_EMITRANGE_Msk         (0x1UL << DWT_FUNCTION_EMITRANGE_Pos)       /*!< DWT FUN
1044:Drivers/CMSIS/Include/core_cm4.h **** 
1045:Drivers/CMSIS/Include/core_cm4.h **** #define DWT_FUNCTION_FUNCTION_Pos           0U                                         /*!< DWT FUN
1046:Drivers/CMSIS/Include/core_cm4.h **** #define DWT_FUNCTION_FUNCTION_Msk          (0xFUL /*<< DWT_FUNCTION_FUNCTION_Pos*/)    /*!< DWT FUN
1047:Drivers/CMSIS/Include/core_cm4.h **** 
1048:Drivers/CMSIS/Include/core_cm4.h **** /*@}*/ /* end of group CMSIS_DWT */
1049:Drivers/CMSIS/Include/core_cm4.h **** 
1050:Drivers/CMSIS/Include/core_cm4.h **** 
1051:Drivers/CMSIS/Include/core_cm4.h **** /**
1052:Drivers/CMSIS/Include/core_cm4.h ****   \ingroup  CMSIS_core_register
1053:Drivers/CMSIS/Include/core_cm4.h ****   \defgroup CMSIS_TPI     Trace Port Interface (TPI)
1054:Drivers/CMSIS/Include/core_cm4.h ****   \brief    Type definitions for the Trace Port Interface (TPI)
1055:Drivers/CMSIS/Include/core_cm4.h ****   @{
1056:Drivers/CMSIS/Include/core_cm4.h ****  */
1057:Drivers/CMSIS/Include/core_cm4.h **** 
1058:Drivers/CMSIS/Include/core_cm4.h **** /**
1059:Drivers/CMSIS/Include/core_cm4.h ****   \brief  Structure type to access the Trace Port Interface Register (TPI).
1060:Drivers/CMSIS/Include/core_cm4.h ****  */
1061:Drivers/CMSIS/Include/core_cm4.h **** typedef struct
1062:Drivers/CMSIS/Include/core_cm4.h **** {
1063:Drivers/CMSIS/Include/core_cm4.h ****   __IM  uint32_t SSPSR;                  /*!< Offset: 0x000 (R/ )  Supported Parallel Port Size Reg
1064:Drivers/CMSIS/Include/core_cm4.h ****   __IOM uint32_t CSPSR;                  /*!< Offset: 0x004 (R/W)  Current Parallel Port Size Regis
1065:Drivers/CMSIS/Include/core_cm4.h ****         uint32_t RESERVED0[2U];
1066:Drivers/CMSIS/Include/core_cm4.h ****   __IOM uint32_t ACPR;                   /*!< Offset: 0x010 (R/W)  Asynchronous Clock Prescaler Reg
1067:Drivers/CMSIS/Include/core_cm4.h ****         uint32_t RESERVED1[55U];
1068:Drivers/CMSIS/Include/core_cm4.h ****   __IOM uint32_t SPPR;                   /*!< Offset: 0x0F0 (R/W)  Selected Pin Protocol Register *
1069:Drivers/CMSIS/Include/core_cm4.h ****         uint32_t RESERVED2[131U];
1070:Drivers/CMSIS/Include/core_cm4.h ****   __IM  uint32_t FFSR;                   /*!< Offset: 0x300 (R/ )  Formatter and Flush Status Regis
1071:Drivers/CMSIS/Include/core_cm4.h ****   __IOM uint32_t FFCR;                   /*!< Offset: 0x304 (R/W)  Formatter and Flush Control Regi
1072:Drivers/CMSIS/Include/core_cm4.h ****   __IM  uint32_t FSCR;                   /*!< Offset: 0x308 (R/ )  Formatter Synchronization Counte
1073:Drivers/CMSIS/Include/core_cm4.h ****         uint32_t RESERVED3[759U];
1074:Drivers/CMSIS/Include/core_cm4.h ****   __IM  uint32_t TRIGGER;                /*!< Offset: 0xEE8 (R/ )  TRIGGER Register */
1075:Drivers/CMSIS/Include/core_cm4.h ****   __IM  uint32_t FIFO0;                  /*!< Offset: 0xEEC (R/ )  Integration ETM Data */
1076:Drivers/CMSIS/Include/core_cm4.h ****   __IM  uint32_t ITATBCTR2;              /*!< Offset: 0xEF0 (R/ )  ITATBCTR2 */
ARM GAS  C:\Users\neko2\AppData\Local\Temp\ccWG4MHW.s 			page 50


1077:Drivers/CMSIS/Include/core_cm4.h ****         uint32_t RESERVED4[1U];
1078:Drivers/CMSIS/Include/core_cm4.h ****   __IM  uint32_t ITATBCTR0;              /*!< Offset: 0xEF8 (R/ )  ITATBCTR0 */
1079:Drivers/CMSIS/Include/core_cm4.h ****   __IM  uint32_t FIFO1;                  /*!< Offset: 0xEFC (R/ )  Integration ITM Data */
1080:Drivers/CMSIS/Include/core_cm4.h ****   __IOM uint32_t ITCTRL;                 /*!< Offset: 0xF00 (R/W)  Integration Mode Control */
1081:Drivers/CMSIS/Include/core_cm4.h ****         uint32_t RESERVED5[39U];
1082:Drivers/CMSIS/Include/core_cm4.h ****   __IOM uint32_t CLAIMSET;               /*!< Offset: 0xFA0 (R/W)  Claim tag set */
1083:Drivers/CMSIS/Include/core_cm4.h ****   __IOM uint32_t CLAIMCLR;               /*!< Offset: 0xFA4 (R/W)  Claim tag clear */
1084:Drivers/CMSIS/Include/core_cm4.h ****         uint32_t RESERVED7[8U];
1085:Drivers/CMSIS/Include/core_cm4.h ****   __IM  uint32_t DEVID;                  /*!< Offset: 0xFC8 (R/ )  TPIU_DEVID */
1086:Drivers/CMSIS/Include/core_cm4.h ****   __IM  uint32_t DEVTYPE;                /*!< Offset: 0xFCC (R/ )  TPIU_DEVTYPE */
1087:Drivers/CMSIS/Include/core_cm4.h **** } TPI_Type;
1088:Drivers/CMSIS/Include/core_cm4.h **** 
1089:Drivers/CMSIS/Include/core_cm4.h **** /* TPI Asynchronous Clock Prescaler Register Definitions */
1090:Drivers/CMSIS/Include/core_cm4.h **** #define TPI_ACPR_PRESCALER_Pos              0U                                         /*!< TPI ACP
1091:Drivers/CMSIS/Include/core_cm4.h **** #define TPI_ACPR_PRESCALER_Msk             (0x1FFFUL /*<< TPI_ACPR_PRESCALER_Pos*/)    /*!< TPI ACP
1092:Drivers/CMSIS/Include/core_cm4.h **** 
1093:Drivers/CMSIS/Include/core_cm4.h **** /* TPI Selected Pin Protocol Register Definitions */
1094:Drivers/CMSIS/Include/core_cm4.h **** #define TPI_SPPR_TXMODE_Pos                 0U                                         /*!< TPI SPP
1095:Drivers/CMSIS/Include/core_cm4.h **** #define TPI_SPPR_TXMODE_Msk                (0x3UL /*<< TPI_SPPR_TXMODE_Pos*/)          /*!< TPI SPP
1096:Drivers/CMSIS/Include/core_cm4.h **** 
1097:Drivers/CMSIS/Include/core_cm4.h **** /* TPI Formatter and Flush Status Register Definitions */
1098:Drivers/CMSIS/Include/core_cm4.h **** #define TPI_FFSR_FtNonStop_Pos              3U                                         /*!< TPI FFS
1099:Drivers/CMSIS/Include/core_cm4.h **** #define TPI_FFSR_FtNonStop_Msk             (0x1UL << TPI_FFSR_FtNonStop_Pos)           /*!< TPI FFS
1100:Drivers/CMSIS/Include/core_cm4.h **** 
1101:Drivers/CMSIS/Include/core_cm4.h **** #define TPI_FFSR_TCPresent_Pos              2U                                         /*!< TPI FFS
1102:Drivers/CMSIS/Include/core_cm4.h **** #define TPI_FFSR_TCPresent_Msk             (0x1UL << TPI_FFSR_TCPresent_Pos)           /*!< TPI FFS
1103:Drivers/CMSIS/Include/core_cm4.h **** 
1104:Drivers/CMSIS/Include/core_cm4.h **** #define TPI_FFSR_FtStopped_Pos              1U                                         /*!< TPI FFS
1105:Drivers/CMSIS/Include/core_cm4.h **** #define TPI_FFSR_FtStopped_Msk             (0x1UL << TPI_FFSR_FtStopped_Pos)           /*!< TPI FFS
1106:Drivers/CMSIS/Include/core_cm4.h **** 
1107:Drivers/CMSIS/Include/core_cm4.h **** #define TPI_FFSR_FlInProg_Pos               0U                                         /*!< TPI FFS
1108:Drivers/CMSIS/Include/core_cm4.h **** #define TPI_FFSR_FlInProg_Msk              (0x1UL /*<< TPI_FFSR_FlInProg_Pos*/)        /*!< TPI FFS
1109:Drivers/CMSIS/Include/core_cm4.h **** 
1110:Drivers/CMSIS/Include/core_cm4.h **** /* TPI Formatter and Flush Control Register Definitions */
1111:Drivers/CMSIS/Include/core_cm4.h **** #define TPI_FFCR_TrigIn_Pos                 8U                                         /*!< TPI FFC
1112:Drivers/CMSIS/Include/core_cm4.h **** #define TPI_FFCR_TrigIn_Msk                (0x1UL << TPI_FFCR_TrigIn_Pos)              /*!< TPI FFC
1113:Drivers/CMSIS/Include/core_cm4.h **** 
1114:Drivers/CMSIS/Include/core_cm4.h **** #define TPI_FFCR_EnFCont_Pos                1U                                         /*!< TPI FFC
1115:Drivers/CMSIS/Include/core_cm4.h **** #define TPI_FFCR_EnFCont_Msk               (0x1UL << TPI_FFCR_EnFCont_Pos)             /*!< TPI FFC
1116:Drivers/CMSIS/Include/core_cm4.h **** 
1117:Drivers/CMSIS/Include/core_cm4.h **** /* TPI TRIGGER Register Definitions */
1118:Drivers/CMSIS/Include/core_cm4.h **** #define TPI_TRIGGER_TRIGGER_Pos             0U                                         /*!< TPI TRI
1119:Drivers/CMSIS/Include/core_cm4.h **** #define TPI_TRIGGER_TRIGGER_Msk            (0x1UL /*<< TPI_TRIGGER_TRIGGER_Pos*/)      /*!< TPI TRI
1120:Drivers/CMSIS/Include/core_cm4.h **** 
1121:Drivers/CMSIS/Include/core_cm4.h **** /* TPI Integration ETM Data Register Definitions (FIFO0) */
1122:Drivers/CMSIS/Include/core_cm4.h **** #define TPI_FIFO0_ITM_ATVALID_Pos          29U                                         /*!< TPI FIF
1123:Drivers/CMSIS/Include/core_cm4.h **** #define TPI_FIFO0_ITM_ATVALID_Msk          (0x3UL << TPI_FIFO0_ITM_ATVALID_Pos)        /*!< TPI FIF
1124:Drivers/CMSIS/Include/core_cm4.h **** 
1125:Drivers/CMSIS/Include/core_cm4.h **** #define TPI_FIFO0_ITM_bytecount_Pos        27U                                         /*!< TPI FIF
1126:Drivers/CMSIS/Include/core_cm4.h **** #define TPI_FIFO0_ITM_bytecount_Msk        (0x3UL << TPI_FIFO0_ITM_bytecount_Pos)      /*!< TPI FIF
1127:Drivers/CMSIS/Include/core_cm4.h **** 
1128:Drivers/CMSIS/Include/core_cm4.h **** #define TPI_FIFO0_ETM_ATVALID_Pos          26U                                         /*!< TPI FIF
1129:Drivers/CMSIS/Include/core_cm4.h **** #define TPI_FIFO0_ETM_ATVALID_Msk          (0x3UL << TPI_FIFO0_ETM_ATVALID_Pos)        /*!< TPI FIF
1130:Drivers/CMSIS/Include/core_cm4.h **** 
1131:Drivers/CMSIS/Include/core_cm4.h **** #define TPI_FIFO0_ETM_bytecount_Pos        24U                                         /*!< TPI FIF
1132:Drivers/CMSIS/Include/core_cm4.h **** #define TPI_FIFO0_ETM_bytecount_Msk        (0x3UL << TPI_FIFO0_ETM_bytecount_Pos)      /*!< TPI FIF
1133:Drivers/CMSIS/Include/core_cm4.h **** 
ARM GAS  C:\Users\neko2\AppData\Local\Temp\ccWG4MHW.s 			page 51


1134:Drivers/CMSIS/Include/core_cm4.h **** #define TPI_FIFO0_ETM2_Pos                 16U                                         /*!< TPI FIF
1135:Drivers/CMSIS/Include/core_cm4.h **** #define TPI_FIFO0_ETM2_Msk                 (0xFFUL << TPI_FIFO0_ETM2_Pos)              /*!< TPI FIF
1136:Drivers/CMSIS/Include/core_cm4.h **** 
1137:Drivers/CMSIS/Include/core_cm4.h **** #define TPI_FIFO0_ETM1_Pos                  8U                                         /*!< TPI FIF
1138:Drivers/CMSIS/Include/core_cm4.h **** #define TPI_FIFO0_ETM1_Msk                 (0xFFUL << TPI_FIFO0_ETM1_Pos)              /*!< TPI FIF
1139:Drivers/CMSIS/Include/core_cm4.h **** 
1140:Drivers/CMSIS/Include/core_cm4.h **** #define TPI_FIFO0_ETM0_Pos                  0U                                         /*!< TPI FIF
1141:Drivers/CMSIS/Include/core_cm4.h **** #define TPI_FIFO0_ETM0_Msk                 (0xFFUL /*<< TPI_FIFO0_ETM0_Pos*/)          /*!< TPI FIF
1142:Drivers/CMSIS/Include/core_cm4.h **** 
1143:Drivers/CMSIS/Include/core_cm4.h **** /* TPI ITATBCTR2 Register Definitions */
1144:Drivers/CMSIS/Include/core_cm4.h **** #define TPI_ITATBCTR2_ATREADY2_Pos          0U                                         /*!< TPI ITA
1145:Drivers/CMSIS/Include/core_cm4.h **** #define TPI_ITATBCTR2_ATREADY2_Msk         (0x1UL /*<< TPI_ITATBCTR2_ATREADY2_Pos*/)   /*!< TPI ITA
1146:Drivers/CMSIS/Include/core_cm4.h **** 
1147:Drivers/CMSIS/Include/core_cm4.h **** #define TPI_ITATBCTR2_ATREADY1_Pos          0U                                         /*!< TPI ITA
1148:Drivers/CMSIS/Include/core_cm4.h **** #define TPI_ITATBCTR2_ATREADY1_Msk         (0x1UL /*<< TPI_ITATBCTR2_ATREADY1_Pos*/)   /*!< TPI ITA
1149:Drivers/CMSIS/Include/core_cm4.h **** 
1150:Drivers/CMSIS/Include/core_cm4.h **** /* TPI Integration ITM Data Register Definitions (FIFO1) */
1151:Drivers/CMSIS/Include/core_cm4.h **** #define TPI_FIFO1_ITM_ATVALID_Pos          29U                                         /*!< TPI FIF
1152:Drivers/CMSIS/Include/core_cm4.h **** #define TPI_FIFO1_ITM_ATVALID_Msk          (0x3UL << TPI_FIFO1_ITM_ATVALID_Pos)        /*!< TPI FIF
1153:Drivers/CMSIS/Include/core_cm4.h **** 
1154:Drivers/CMSIS/Include/core_cm4.h **** #define TPI_FIFO1_ITM_bytecount_Pos        27U                                         /*!< TPI FIF
1155:Drivers/CMSIS/Include/core_cm4.h **** #define TPI_FIFO1_ITM_bytecount_Msk        (0x3UL << TPI_FIFO1_ITM_bytecount_Pos)      /*!< TPI FIF
1156:Drivers/CMSIS/Include/core_cm4.h **** 
1157:Drivers/CMSIS/Include/core_cm4.h **** #define TPI_FIFO1_ETM_ATVALID_Pos          26U                                         /*!< TPI FIF
1158:Drivers/CMSIS/Include/core_cm4.h **** #define TPI_FIFO1_ETM_ATVALID_Msk          (0x3UL << TPI_FIFO1_ETM_ATVALID_Pos)        /*!< TPI FIF
1159:Drivers/CMSIS/Include/core_cm4.h **** 
1160:Drivers/CMSIS/Include/core_cm4.h **** #define TPI_FIFO1_ETM_bytecount_Pos        24U                                         /*!< TPI FIF
1161:Drivers/CMSIS/Include/core_cm4.h **** #define TPI_FIFO1_ETM_bytecount_Msk        (0x3UL << TPI_FIFO1_ETM_bytecount_Pos)      /*!< TPI FIF
1162:Drivers/CMSIS/Include/core_cm4.h **** 
1163:Drivers/CMSIS/Include/core_cm4.h **** #define TPI_FIFO1_ITM2_Pos                 16U                                         /*!< TPI FIF
1164:Drivers/CMSIS/Include/core_cm4.h **** #define TPI_FIFO1_ITM2_Msk                 (0xFFUL << TPI_FIFO1_ITM2_Pos)              /*!< TPI FIF
1165:Drivers/CMSIS/Include/core_cm4.h **** 
1166:Drivers/CMSIS/Include/core_cm4.h **** #define TPI_FIFO1_ITM1_Pos                  8U                                         /*!< TPI FIF
1167:Drivers/CMSIS/Include/core_cm4.h **** #define TPI_FIFO1_ITM1_Msk                 (0xFFUL << TPI_FIFO1_ITM1_Pos)              /*!< TPI FIF
1168:Drivers/CMSIS/Include/core_cm4.h **** 
1169:Drivers/CMSIS/Include/core_cm4.h **** #define TPI_FIFO1_ITM0_Pos                  0U                                         /*!< TPI FIF
1170:Drivers/CMSIS/Include/core_cm4.h **** #define TPI_FIFO1_ITM0_Msk                 (0xFFUL /*<< TPI_FIFO1_ITM0_Pos*/)          /*!< TPI FIF
1171:Drivers/CMSIS/Include/core_cm4.h **** 
1172:Drivers/CMSIS/Include/core_cm4.h **** /* TPI ITATBCTR0 Register Definitions */
1173:Drivers/CMSIS/Include/core_cm4.h **** #define TPI_ITATBCTR0_ATREADY2_Pos          0U                                         /*!< TPI ITA
1174:Drivers/CMSIS/Include/core_cm4.h **** #define TPI_ITATBCTR0_ATREADY2_Msk         (0x1UL /*<< TPI_ITATBCTR0_ATREADY2_Pos*/)   /*!< TPI ITA
1175:Drivers/CMSIS/Include/core_cm4.h **** 
1176:Drivers/CMSIS/Include/core_cm4.h **** #define TPI_ITATBCTR0_ATREADY1_Pos          0U                                         /*!< TPI ITA
1177:Drivers/CMSIS/Include/core_cm4.h **** #define TPI_ITATBCTR0_ATREADY1_Msk         (0x1UL /*<< TPI_ITATBCTR0_ATREADY1_Pos*/)   /*!< TPI ITA
1178:Drivers/CMSIS/Include/core_cm4.h **** 
1179:Drivers/CMSIS/Include/core_cm4.h **** /* TPI Integration Mode Control Register Definitions */
1180:Drivers/CMSIS/Include/core_cm4.h **** #define TPI_ITCTRL_Mode_Pos                 0U                                         /*!< TPI ITC
1181:Drivers/CMSIS/Include/core_cm4.h **** #define TPI_ITCTRL_Mode_Msk                (0x3UL /*<< TPI_ITCTRL_Mode_Pos*/)          /*!< TPI ITC
1182:Drivers/CMSIS/Include/core_cm4.h **** 
1183:Drivers/CMSIS/Include/core_cm4.h **** /* TPI DEVID Register Definitions */
1184:Drivers/CMSIS/Include/core_cm4.h **** #define TPI_DEVID_NRZVALID_Pos             11U                                         /*!< TPI DEV
1185:Drivers/CMSIS/Include/core_cm4.h **** #define TPI_DEVID_NRZVALID_Msk             (0x1UL << TPI_DEVID_NRZVALID_Pos)           /*!< TPI DEV
1186:Drivers/CMSIS/Include/core_cm4.h **** 
1187:Drivers/CMSIS/Include/core_cm4.h **** #define TPI_DEVID_MANCVALID_Pos            10U                                         /*!< TPI DEV
1188:Drivers/CMSIS/Include/core_cm4.h **** #define TPI_DEVID_MANCVALID_Msk            (0x1UL << TPI_DEVID_MANCVALID_Pos)          /*!< TPI DEV
1189:Drivers/CMSIS/Include/core_cm4.h **** 
1190:Drivers/CMSIS/Include/core_cm4.h **** #define TPI_DEVID_PTINVALID_Pos             9U                                         /*!< TPI DEV
ARM GAS  C:\Users\neko2\AppData\Local\Temp\ccWG4MHW.s 			page 52


1191:Drivers/CMSIS/Include/core_cm4.h **** #define TPI_DEVID_PTINVALID_Msk            (0x1UL << TPI_DEVID_PTINVALID_Pos)          /*!< TPI DEV
1192:Drivers/CMSIS/Include/core_cm4.h **** 
1193:Drivers/CMSIS/Include/core_cm4.h **** #define TPI_DEVID_MinBufSz_Pos              6U                                         /*!< TPI DEV
1194:Drivers/CMSIS/Include/core_cm4.h **** #define TPI_DEVID_MinBufSz_Msk             (0x7UL << TPI_DEVID_MinBufSz_Pos)           /*!< TPI DEV
1195:Drivers/CMSIS/Include/core_cm4.h **** 
1196:Drivers/CMSIS/Include/core_cm4.h **** #define TPI_DEVID_AsynClkIn_Pos             5U                                         /*!< TPI DEV
1197:Drivers/CMSIS/Include/core_cm4.h **** #define TPI_DEVID_AsynClkIn_Msk            (0x1UL << TPI_DEVID_AsynClkIn_Pos)          /*!< TPI DEV
1198:Drivers/CMSIS/Include/core_cm4.h **** 
1199:Drivers/CMSIS/Include/core_cm4.h **** #define TPI_DEVID_NrTraceInput_Pos          0U                                         /*!< TPI DEV
1200:Drivers/CMSIS/Include/core_cm4.h **** #define TPI_DEVID_NrTraceInput_Msk         (0x1FUL /*<< TPI_DEVID_NrTraceInput_Pos*/)  /*!< TPI DEV
1201:Drivers/CMSIS/Include/core_cm4.h **** 
1202:Drivers/CMSIS/Include/core_cm4.h **** /* TPI DEVTYPE Register Definitions */
1203:Drivers/CMSIS/Include/core_cm4.h **** #define TPI_DEVTYPE_SubType_Pos             4U                                         /*!< TPI DEV
1204:Drivers/CMSIS/Include/core_cm4.h **** #define TPI_DEVTYPE_SubType_Msk            (0xFUL /*<< TPI_DEVTYPE_SubType_Pos*/)      /*!< TPI DEV
1205:Drivers/CMSIS/Include/core_cm4.h **** 
1206:Drivers/CMSIS/Include/core_cm4.h **** #define TPI_DEVTYPE_MajorType_Pos           0U                                         /*!< TPI DEV
1207:Drivers/CMSIS/Include/core_cm4.h **** #define TPI_DEVTYPE_MajorType_Msk          (0xFUL << TPI_DEVTYPE_MajorType_Pos)        /*!< TPI DEV
1208:Drivers/CMSIS/Include/core_cm4.h **** 
1209:Drivers/CMSIS/Include/core_cm4.h **** /*@}*/ /* end of group CMSIS_TPI */
1210:Drivers/CMSIS/Include/core_cm4.h **** 
1211:Drivers/CMSIS/Include/core_cm4.h **** 
1212:Drivers/CMSIS/Include/core_cm4.h **** #if defined (__MPU_PRESENT) && (__MPU_PRESENT == 1U)
1213:Drivers/CMSIS/Include/core_cm4.h **** /**
1214:Drivers/CMSIS/Include/core_cm4.h ****   \ingroup  CMSIS_core_register
1215:Drivers/CMSIS/Include/core_cm4.h ****   \defgroup CMSIS_MPU     Memory Protection Unit (MPU)
1216:Drivers/CMSIS/Include/core_cm4.h ****   \brief    Type definitions for the Memory Protection Unit (MPU)
1217:Drivers/CMSIS/Include/core_cm4.h ****   @{
1218:Drivers/CMSIS/Include/core_cm4.h ****  */
1219:Drivers/CMSIS/Include/core_cm4.h **** 
1220:Drivers/CMSIS/Include/core_cm4.h **** /**
1221:Drivers/CMSIS/Include/core_cm4.h ****   \brief  Structure type to access the Memory Protection Unit (MPU).
1222:Drivers/CMSIS/Include/core_cm4.h ****  */
1223:Drivers/CMSIS/Include/core_cm4.h **** typedef struct
1224:Drivers/CMSIS/Include/core_cm4.h **** {
1225:Drivers/CMSIS/Include/core_cm4.h ****   __IM  uint32_t TYPE;                   /*!< Offset: 0x000 (R/ )  MPU Type Register */
1226:Drivers/CMSIS/Include/core_cm4.h ****   __IOM uint32_t CTRL;                   /*!< Offset: 0x004 (R/W)  MPU Control Register */
1227:Drivers/CMSIS/Include/core_cm4.h ****   __IOM uint32_t RNR;                    /*!< Offset: 0x008 (R/W)  MPU Region RNRber Register */
1228:Drivers/CMSIS/Include/core_cm4.h ****   __IOM uint32_t RBAR;                   /*!< Offset: 0x00C (R/W)  MPU Region Base Address Register
1229:Drivers/CMSIS/Include/core_cm4.h ****   __IOM uint32_t RASR;                   /*!< Offset: 0x010 (R/W)  MPU Region Attribute and Size Re
1230:Drivers/CMSIS/Include/core_cm4.h ****   __IOM uint32_t RBAR_A1;                /*!< Offset: 0x014 (R/W)  MPU Alias 1 Region Base Address 
1231:Drivers/CMSIS/Include/core_cm4.h ****   __IOM uint32_t RASR_A1;                /*!< Offset: 0x018 (R/W)  MPU Alias 1 Region Attribute and
1232:Drivers/CMSIS/Include/core_cm4.h ****   __IOM uint32_t RBAR_A2;                /*!< Offset: 0x01C (R/W)  MPU Alias 2 Region Base Address 
1233:Drivers/CMSIS/Include/core_cm4.h ****   __IOM uint32_t RASR_A2;                /*!< Offset: 0x020 (R/W)  MPU Alias 2 Region Attribute and
1234:Drivers/CMSIS/Include/core_cm4.h ****   __IOM uint32_t RBAR_A3;                /*!< Offset: 0x024 (R/W)  MPU Alias 3 Region Base Address 
1235:Drivers/CMSIS/Include/core_cm4.h ****   __IOM uint32_t RASR_A3;                /*!< Offset: 0x028 (R/W)  MPU Alias 3 Region Attribute and
1236:Drivers/CMSIS/Include/core_cm4.h **** } MPU_Type;
1237:Drivers/CMSIS/Include/core_cm4.h **** 
1238:Drivers/CMSIS/Include/core_cm4.h **** #define MPU_TYPE_RALIASES                  4U
1239:Drivers/CMSIS/Include/core_cm4.h **** 
1240:Drivers/CMSIS/Include/core_cm4.h **** /* MPU Type Register Definitions */
1241:Drivers/CMSIS/Include/core_cm4.h **** #define MPU_TYPE_IREGION_Pos               16U                                            /*!< MPU 
1242:Drivers/CMSIS/Include/core_cm4.h **** #define MPU_TYPE_IREGION_Msk               (0xFFUL << MPU_TYPE_IREGION_Pos)               /*!< MPU 
1243:Drivers/CMSIS/Include/core_cm4.h **** 
1244:Drivers/CMSIS/Include/core_cm4.h **** #define MPU_TYPE_DREGION_Pos                8U                                            /*!< MPU 
1245:Drivers/CMSIS/Include/core_cm4.h **** #define MPU_TYPE_DREGION_Msk               (0xFFUL << MPU_TYPE_DREGION_Pos)               /*!< MPU 
1246:Drivers/CMSIS/Include/core_cm4.h **** 
1247:Drivers/CMSIS/Include/core_cm4.h **** #define MPU_TYPE_SEPARATE_Pos               0U                                            /*!< MPU 
ARM GAS  C:\Users\neko2\AppData\Local\Temp\ccWG4MHW.s 			page 53


1248:Drivers/CMSIS/Include/core_cm4.h **** #define MPU_TYPE_SEPARATE_Msk              (1UL /*<< MPU_TYPE_SEPARATE_Pos*/)             /*!< MPU 
1249:Drivers/CMSIS/Include/core_cm4.h **** 
1250:Drivers/CMSIS/Include/core_cm4.h **** /* MPU Control Register Definitions */
1251:Drivers/CMSIS/Include/core_cm4.h **** #define MPU_CTRL_PRIVDEFENA_Pos             2U                                            /*!< MPU 
1252:Drivers/CMSIS/Include/core_cm4.h **** #define MPU_CTRL_PRIVDEFENA_Msk            (1UL << MPU_CTRL_PRIVDEFENA_Pos)               /*!< MPU 
1253:Drivers/CMSIS/Include/core_cm4.h **** 
1254:Drivers/CMSIS/Include/core_cm4.h **** #define MPU_CTRL_HFNMIENA_Pos               1U                                            /*!< MPU 
1255:Drivers/CMSIS/Include/core_cm4.h **** #define MPU_CTRL_HFNMIENA_Msk              (1UL << MPU_CTRL_HFNMIENA_Pos)                 /*!< MPU 
1256:Drivers/CMSIS/Include/core_cm4.h **** 
1257:Drivers/CMSIS/Include/core_cm4.h **** #define MPU_CTRL_ENABLE_Pos                 0U                                            /*!< MPU 
1258:Drivers/CMSIS/Include/core_cm4.h **** #define MPU_CTRL_ENABLE_Msk                (1UL /*<< MPU_CTRL_ENABLE_Pos*/)               /*!< MPU 
1259:Drivers/CMSIS/Include/core_cm4.h **** 
1260:Drivers/CMSIS/Include/core_cm4.h **** /* MPU Region Number Register Definitions */
1261:Drivers/CMSIS/Include/core_cm4.h **** #define MPU_RNR_REGION_Pos                  0U                                            /*!< MPU 
1262:Drivers/CMSIS/Include/core_cm4.h **** #define MPU_RNR_REGION_Msk                 (0xFFUL /*<< MPU_RNR_REGION_Pos*/)             /*!< MPU 
1263:Drivers/CMSIS/Include/core_cm4.h **** 
1264:Drivers/CMSIS/Include/core_cm4.h **** /* MPU Region Base Address Register Definitions */
1265:Drivers/CMSIS/Include/core_cm4.h **** #define MPU_RBAR_ADDR_Pos                   5U                                            /*!< MPU 
1266:Drivers/CMSIS/Include/core_cm4.h **** #define MPU_RBAR_ADDR_Msk                  (0x7FFFFFFUL << MPU_RBAR_ADDR_Pos)             /*!< MPU 
1267:Drivers/CMSIS/Include/core_cm4.h **** 
1268:Drivers/CMSIS/Include/core_cm4.h **** #define MPU_RBAR_VALID_Pos                  4U                                            /*!< MPU 
1269:Drivers/CMSIS/Include/core_cm4.h **** #define MPU_RBAR_VALID_Msk                 (1UL << MPU_RBAR_VALID_Pos)                    /*!< MPU 
1270:Drivers/CMSIS/Include/core_cm4.h **** 
1271:Drivers/CMSIS/Include/core_cm4.h **** #define MPU_RBAR_REGION_Pos                 0U                                            /*!< MPU 
1272:Drivers/CMSIS/Include/core_cm4.h **** #define MPU_RBAR_REGION_Msk                (0xFUL /*<< MPU_RBAR_REGION_Pos*/)             /*!< MPU 
1273:Drivers/CMSIS/Include/core_cm4.h **** 
1274:Drivers/CMSIS/Include/core_cm4.h **** /* MPU Region Attribute and Size Register Definitions */
1275:Drivers/CMSIS/Include/core_cm4.h **** #define MPU_RASR_ATTRS_Pos                 16U                                            /*!< MPU 
1276:Drivers/CMSIS/Include/core_cm4.h **** #define MPU_RASR_ATTRS_Msk                 (0xFFFFUL << MPU_RASR_ATTRS_Pos)               /*!< MPU 
1277:Drivers/CMSIS/Include/core_cm4.h **** 
1278:Drivers/CMSIS/Include/core_cm4.h **** #define MPU_RASR_XN_Pos                    28U                                            /*!< MPU 
1279:Drivers/CMSIS/Include/core_cm4.h **** #define MPU_RASR_XN_Msk                    (1UL << MPU_RASR_XN_Pos)                       /*!< MPU 
1280:Drivers/CMSIS/Include/core_cm4.h **** 
1281:Drivers/CMSIS/Include/core_cm4.h **** #define MPU_RASR_AP_Pos                    24U                                            /*!< MPU 
1282:Drivers/CMSIS/Include/core_cm4.h **** #define MPU_RASR_AP_Msk                    (0x7UL << MPU_RASR_AP_Pos)                     /*!< MPU 
1283:Drivers/CMSIS/Include/core_cm4.h **** 
1284:Drivers/CMSIS/Include/core_cm4.h **** #define MPU_RASR_TEX_Pos                   19U                                            /*!< MPU 
1285:Drivers/CMSIS/Include/core_cm4.h **** #define MPU_RASR_TEX_Msk                   (0x7UL << MPU_RASR_TEX_Pos)                    /*!< MPU 
1286:Drivers/CMSIS/Include/core_cm4.h **** 
1287:Drivers/CMSIS/Include/core_cm4.h **** #define MPU_RASR_S_Pos                     18U                                            /*!< MPU 
1288:Drivers/CMSIS/Include/core_cm4.h **** #define MPU_RASR_S_Msk                     (1UL << MPU_RASR_S_Pos)                        /*!< MPU 
1289:Drivers/CMSIS/Include/core_cm4.h **** 
1290:Drivers/CMSIS/Include/core_cm4.h **** #define MPU_RASR_C_Pos                     17U                                            /*!< MPU 
1291:Drivers/CMSIS/Include/core_cm4.h **** #define MPU_RASR_C_Msk                     (1UL << MPU_RASR_C_Pos)                        /*!< MPU 
1292:Drivers/CMSIS/Include/core_cm4.h **** 
1293:Drivers/CMSIS/Include/core_cm4.h **** #define MPU_RASR_B_Pos                     16U                                            /*!< MPU 
1294:Drivers/CMSIS/Include/core_cm4.h **** #define MPU_RASR_B_Msk                     (1UL << MPU_RASR_B_Pos)                        /*!< MPU 
1295:Drivers/CMSIS/Include/core_cm4.h **** 
1296:Drivers/CMSIS/Include/core_cm4.h **** #define MPU_RASR_SRD_Pos                    8U                                            /*!< MPU 
1297:Drivers/CMSIS/Include/core_cm4.h **** #define MPU_RASR_SRD_Msk                   (0xFFUL << MPU_RASR_SRD_Pos)                   /*!< MPU 
1298:Drivers/CMSIS/Include/core_cm4.h **** 
1299:Drivers/CMSIS/Include/core_cm4.h **** #define MPU_RASR_SIZE_Pos                   1U                                            /*!< MPU 
1300:Drivers/CMSIS/Include/core_cm4.h **** #define MPU_RASR_SIZE_Msk                  (0x1FUL << MPU_RASR_SIZE_Pos)                  /*!< MPU 
1301:Drivers/CMSIS/Include/core_cm4.h **** 
1302:Drivers/CMSIS/Include/core_cm4.h **** #define MPU_RASR_ENABLE_Pos                 0U                                            /*!< MPU 
1303:Drivers/CMSIS/Include/core_cm4.h **** #define MPU_RASR_ENABLE_Msk                (1UL /*<< MPU_RASR_ENABLE_Pos*/)               /*!< MPU 
1304:Drivers/CMSIS/Include/core_cm4.h **** 
ARM GAS  C:\Users\neko2\AppData\Local\Temp\ccWG4MHW.s 			page 54


1305:Drivers/CMSIS/Include/core_cm4.h **** /*@} end of group CMSIS_MPU */
1306:Drivers/CMSIS/Include/core_cm4.h **** #endif /* defined (__MPU_PRESENT) && (__MPU_PRESENT == 1U) */
1307:Drivers/CMSIS/Include/core_cm4.h **** 
1308:Drivers/CMSIS/Include/core_cm4.h **** 
1309:Drivers/CMSIS/Include/core_cm4.h **** /**
1310:Drivers/CMSIS/Include/core_cm4.h ****   \ingroup  CMSIS_core_register
1311:Drivers/CMSIS/Include/core_cm4.h ****   \defgroup CMSIS_FPU     Floating Point Unit (FPU)
1312:Drivers/CMSIS/Include/core_cm4.h ****   \brief    Type definitions for the Floating Point Unit (FPU)
1313:Drivers/CMSIS/Include/core_cm4.h ****   @{
1314:Drivers/CMSIS/Include/core_cm4.h ****  */
1315:Drivers/CMSIS/Include/core_cm4.h **** 
1316:Drivers/CMSIS/Include/core_cm4.h **** /**
1317:Drivers/CMSIS/Include/core_cm4.h ****   \brief  Structure type to access the Floating Point Unit (FPU).
1318:Drivers/CMSIS/Include/core_cm4.h ****  */
1319:Drivers/CMSIS/Include/core_cm4.h **** typedef struct
1320:Drivers/CMSIS/Include/core_cm4.h **** {
1321:Drivers/CMSIS/Include/core_cm4.h ****         uint32_t RESERVED0[1U];
1322:Drivers/CMSIS/Include/core_cm4.h ****   __IOM uint32_t FPCCR;                  /*!< Offset: 0x004 (R/W)  Floating-Point Context Control R
1323:Drivers/CMSIS/Include/core_cm4.h ****   __IOM uint32_t FPCAR;                  /*!< Offset: 0x008 (R/W)  Floating-Point Context Address R
1324:Drivers/CMSIS/Include/core_cm4.h ****   __IOM uint32_t FPDSCR;                 /*!< Offset: 0x00C (R/W)  Floating-Point Default Status Co
1325:Drivers/CMSIS/Include/core_cm4.h ****   __IM  uint32_t MVFR0;                  /*!< Offset: 0x010 (R/ )  Media and FP Feature Register 0 
1326:Drivers/CMSIS/Include/core_cm4.h ****   __IM  uint32_t MVFR1;                  /*!< Offset: 0x014 (R/ )  Media and FP Feature Register 1 
1327:Drivers/CMSIS/Include/core_cm4.h **** } FPU_Type;
1328:Drivers/CMSIS/Include/core_cm4.h **** 
1329:Drivers/CMSIS/Include/core_cm4.h **** /* Floating-Point Context Control Register Definitions */
1330:Drivers/CMSIS/Include/core_cm4.h **** #define FPU_FPCCR_ASPEN_Pos                31U                                            /*!< FPCC
1331:Drivers/CMSIS/Include/core_cm4.h **** #define FPU_FPCCR_ASPEN_Msk                (1UL << FPU_FPCCR_ASPEN_Pos)                   /*!< FPCC
1332:Drivers/CMSIS/Include/core_cm4.h **** 
1333:Drivers/CMSIS/Include/core_cm4.h **** #define FPU_FPCCR_LSPEN_Pos                30U                                            /*!< FPCC
1334:Drivers/CMSIS/Include/core_cm4.h **** #define FPU_FPCCR_LSPEN_Msk                (1UL << FPU_FPCCR_LSPEN_Pos)                   /*!< FPCC
1335:Drivers/CMSIS/Include/core_cm4.h **** 
1336:Drivers/CMSIS/Include/core_cm4.h **** #define FPU_FPCCR_MONRDY_Pos                8U                                            /*!< FPCC
1337:Drivers/CMSIS/Include/core_cm4.h **** #define FPU_FPCCR_MONRDY_Msk               (1UL << FPU_FPCCR_MONRDY_Pos)                  /*!< FPCC
1338:Drivers/CMSIS/Include/core_cm4.h **** 
1339:Drivers/CMSIS/Include/core_cm4.h **** #define FPU_FPCCR_BFRDY_Pos                 6U                                            /*!< FPCC
1340:Drivers/CMSIS/Include/core_cm4.h **** #define FPU_FPCCR_BFRDY_Msk                (1UL << FPU_FPCCR_BFRDY_Pos)                   /*!< FPCC
1341:Drivers/CMSIS/Include/core_cm4.h **** 
1342:Drivers/CMSIS/Include/core_cm4.h **** #define FPU_FPCCR_MMRDY_Pos                 5U                                            /*!< FPCC
1343:Drivers/CMSIS/Include/core_cm4.h **** #define FPU_FPCCR_MMRDY_Msk                (1UL << FPU_FPCCR_MMRDY_Pos)                   /*!< FPCC
1344:Drivers/CMSIS/Include/core_cm4.h **** 
1345:Drivers/CMSIS/Include/core_cm4.h **** #define FPU_FPCCR_HFRDY_Pos                 4U                                            /*!< FPCC
1346:Drivers/CMSIS/Include/core_cm4.h **** #define FPU_FPCCR_HFRDY_Msk                (1UL << FPU_FPCCR_HFRDY_Pos)                   /*!< FPCC
1347:Drivers/CMSIS/Include/core_cm4.h **** 
1348:Drivers/CMSIS/Include/core_cm4.h **** #define FPU_FPCCR_THREAD_Pos                3U                                            /*!< FPCC
1349:Drivers/CMSIS/Include/core_cm4.h **** #define FPU_FPCCR_THREAD_Msk               (1UL << FPU_FPCCR_THREAD_Pos)                  /*!< FPCC
1350:Drivers/CMSIS/Include/core_cm4.h **** 
1351:Drivers/CMSIS/Include/core_cm4.h **** #define FPU_FPCCR_USER_Pos                  1U                                            /*!< FPCC
1352:Drivers/CMSIS/Include/core_cm4.h **** #define FPU_FPCCR_USER_Msk                 (1UL << FPU_FPCCR_USER_Pos)                    /*!< FPCC
1353:Drivers/CMSIS/Include/core_cm4.h **** 
1354:Drivers/CMSIS/Include/core_cm4.h **** #define FPU_FPCCR_LSPACT_Pos                0U                                            /*!< FPCC
1355:Drivers/CMSIS/Include/core_cm4.h **** #define FPU_FPCCR_LSPACT_Msk               (1UL /*<< FPU_FPCCR_LSPACT_Pos*/)              /*!< FPCC
1356:Drivers/CMSIS/Include/core_cm4.h **** 
1357:Drivers/CMSIS/Include/core_cm4.h **** /* Floating-Point Context Address Register Definitions */
1358:Drivers/CMSIS/Include/core_cm4.h **** #define FPU_FPCAR_ADDRESS_Pos               3U                                            /*!< FPCA
1359:Drivers/CMSIS/Include/core_cm4.h **** #define FPU_FPCAR_ADDRESS_Msk              (0x1FFFFFFFUL << FPU_FPCAR_ADDRESS_Pos)        /*!< FPCA
1360:Drivers/CMSIS/Include/core_cm4.h **** 
1361:Drivers/CMSIS/Include/core_cm4.h **** /* Floating-Point Default Status Control Register Definitions */
ARM GAS  C:\Users\neko2\AppData\Local\Temp\ccWG4MHW.s 			page 55


1362:Drivers/CMSIS/Include/core_cm4.h **** #define FPU_FPDSCR_AHP_Pos                 26U                                            /*!< FPDS
1363:Drivers/CMSIS/Include/core_cm4.h **** #define FPU_FPDSCR_AHP_Msk                 (1UL << FPU_FPDSCR_AHP_Pos)                    /*!< FPDS
1364:Drivers/CMSIS/Include/core_cm4.h **** 
1365:Drivers/CMSIS/Include/core_cm4.h **** #define FPU_FPDSCR_DN_Pos                  25U                                            /*!< FPDS
1366:Drivers/CMSIS/Include/core_cm4.h **** #define FPU_FPDSCR_DN_Msk                  (1UL << FPU_FPDSCR_DN_Pos)                     /*!< FPDS
1367:Drivers/CMSIS/Include/core_cm4.h **** 
1368:Drivers/CMSIS/Include/core_cm4.h **** #define FPU_FPDSCR_FZ_Pos                  24U                                            /*!< FPDS
1369:Drivers/CMSIS/Include/core_cm4.h **** #define FPU_FPDSCR_FZ_Msk                  (1UL << FPU_FPDSCR_FZ_Pos)                     /*!< FPDS
1370:Drivers/CMSIS/Include/core_cm4.h **** 
1371:Drivers/CMSIS/Include/core_cm4.h **** #define FPU_FPDSCR_RMode_Pos               22U                                            /*!< FPDS
1372:Drivers/CMSIS/Include/core_cm4.h **** #define FPU_FPDSCR_RMode_Msk               (3UL << FPU_FPDSCR_RMode_Pos)                  /*!< FPDS
1373:Drivers/CMSIS/Include/core_cm4.h **** 
1374:Drivers/CMSIS/Include/core_cm4.h **** /* Media and FP Feature Register 0 Definitions */
1375:Drivers/CMSIS/Include/core_cm4.h **** #define FPU_MVFR0_FP_rounding_modes_Pos    28U                                            /*!< MVFR
1376:Drivers/CMSIS/Include/core_cm4.h **** #define FPU_MVFR0_FP_rounding_modes_Msk    (0xFUL << FPU_MVFR0_FP_rounding_modes_Pos)     /*!< MVFR
1377:Drivers/CMSIS/Include/core_cm4.h **** 
1378:Drivers/CMSIS/Include/core_cm4.h **** #define FPU_MVFR0_Short_vectors_Pos        24U                                            /*!< MVFR
1379:Drivers/CMSIS/Include/core_cm4.h **** #define FPU_MVFR0_Short_vectors_Msk        (0xFUL << FPU_MVFR0_Short_vectors_Pos)         /*!< MVFR
1380:Drivers/CMSIS/Include/core_cm4.h **** 
1381:Drivers/CMSIS/Include/core_cm4.h **** #define FPU_MVFR0_Square_root_Pos          20U                                            /*!< MVFR
1382:Drivers/CMSIS/Include/core_cm4.h **** #define FPU_MVFR0_Square_root_Msk          (0xFUL << FPU_MVFR0_Square_root_Pos)           /*!< MVFR
1383:Drivers/CMSIS/Include/core_cm4.h **** 
1384:Drivers/CMSIS/Include/core_cm4.h **** #define FPU_MVFR0_Divide_Pos               16U                                            /*!< MVFR
1385:Drivers/CMSIS/Include/core_cm4.h **** #define FPU_MVFR0_Divide_Msk               (0xFUL << FPU_MVFR0_Divide_Pos)                /*!< MVFR
1386:Drivers/CMSIS/Include/core_cm4.h **** 
1387:Drivers/CMSIS/Include/core_cm4.h **** #define FPU_MVFR0_FP_excep_trapping_Pos    12U                                            /*!< MVFR
1388:Drivers/CMSIS/Include/core_cm4.h **** #define FPU_MVFR0_FP_excep_trapping_Msk    (0xFUL << FPU_MVFR0_FP_excep_trapping_Pos)     /*!< MVFR
1389:Drivers/CMSIS/Include/core_cm4.h **** 
1390:Drivers/CMSIS/Include/core_cm4.h **** #define FPU_MVFR0_Double_precision_Pos      8U                                            /*!< MVFR
1391:Drivers/CMSIS/Include/core_cm4.h **** #define FPU_MVFR0_Double_precision_Msk     (0xFUL << FPU_MVFR0_Double_precision_Pos)      /*!< MVFR
1392:Drivers/CMSIS/Include/core_cm4.h **** 
1393:Drivers/CMSIS/Include/core_cm4.h **** #define FPU_MVFR0_Single_precision_Pos      4U                                            /*!< MVFR
1394:Drivers/CMSIS/Include/core_cm4.h **** #define FPU_MVFR0_Single_precision_Msk     (0xFUL << FPU_MVFR0_Single_precision_Pos)      /*!< MVFR
1395:Drivers/CMSIS/Include/core_cm4.h **** 
1396:Drivers/CMSIS/Include/core_cm4.h **** #define FPU_MVFR0_A_SIMD_registers_Pos      0U                                            /*!< MVFR
1397:Drivers/CMSIS/Include/core_cm4.h **** #define FPU_MVFR0_A_SIMD_registers_Msk     (0xFUL /*<< FPU_MVFR0_A_SIMD_registers_Pos*/)  /*!< MVFR
1398:Drivers/CMSIS/Include/core_cm4.h **** 
1399:Drivers/CMSIS/Include/core_cm4.h **** /* Media and FP Feature Register 1 Definitions */
1400:Drivers/CMSIS/Include/core_cm4.h **** #define FPU_MVFR1_FP_fused_MAC_Pos         28U                                            /*!< MVFR
1401:Drivers/CMSIS/Include/core_cm4.h **** #define FPU_MVFR1_FP_fused_MAC_Msk         (0xFUL << FPU_MVFR1_FP_fused_MAC_Pos)          /*!< MVFR
1402:Drivers/CMSIS/Include/core_cm4.h **** 
1403:Drivers/CMSIS/Include/core_cm4.h **** #define FPU_MVFR1_FP_HPFP_Pos              24U                                            /*!< MVFR
1404:Drivers/CMSIS/Include/core_cm4.h **** #define FPU_MVFR1_FP_HPFP_Msk              (0xFUL << FPU_MVFR1_FP_HPFP_Pos)               /*!< MVFR
1405:Drivers/CMSIS/Include/core_cm4.h **** 
1406:Drivers/CMSIS/Include/core_cm4.h **** #define FPU_MVFR1_D_NaN_mode_Pos            4U                                            /*!< MVFR
1407:Drivers/CMSIS/Include/core_cm4.h **** #define FPU_MVFR1_D_NaN_mode_Msk           (0xFUL << FPU_MVFR1_D_NaN_mode_Pos)            /*!< MVFR
1408:Drivers/CMSIS/Include/core_cm4.h **** 
1409:Drivers/CMSIS/Include/core_cm4.h **** #define FPU_MVFR1_FtZ_mode_Pos              0U                                            /*!< MVFR
1410:Drivers/CMSIS/Include/core_cm4.h **** #define FPU_MVFR1_FtZ_mode_Msk             (0xFUL /*<< FPU_MVFR1_FtZ_mode_Pos*/)          /*!< MVFR
1411:Drivers/CMSIS/Include/core_cm4.h **** 
1412:Drivers/CMSIS/Include/core_cm4.h **** /*@} end of group CMSIS_FPU */
1413:Drivers/CMSIS/Include/core_cm4.h **** 
1414:Drivers/CMSIS/Include/core_cm4.h **** 
1415:Drivers/CMSIS/Include/core_cm4.h **** /**
1416:Drivers/CMSIS/Include/core_cm4.h ****   \ingroup  CMSIS_core_register
1417:Drivers/CMSIS/Include/core_cm4.h ****   \defgroup CMSIS_CoreDebug       Core Debug Registers (CoreDebug)
1418:Drivers/CMSIS/Include/core_cm4.h ****   \brief    Type definitions for the Core Debug Registers
ARM GAS  C:\Users\neko2\AppData\Local\Temp\ccWG4MHW.s 			page 56


1419:Drivers/CMSIS/Include/core_cm4.h ****   @{
1420:Drivers/CMSIS/Include/core_cm4.h ****  */
1421:Drivers/CMSIS/Include/core_cm4.h **** 
1422:Drivers/CMSIS/Include/core_cm4.h **** /**
1423:Drivers/CMSIS/Include/core_cm4.h ****   \brief  Structure type to access the Core Debug Register (CoreDebug).
1424:Drivers/CMSIS/Include/core_cm4.h ****  */
1425:Drivers/CMSIS/Include/core_cm4.h **** typedef struct
1426:Drivers/CMSIS/Include/core_cm4.h **** {
1427:Drivers/CMSIS/Include/core_cm4.h ****   __IOM uint32_t DHCSR;                  /*!< Offset: 0x000 (R/W)  Debug Halting Control and Status
1428:Drivers/CMSIS/Include/core_cm4.h ****   __OM  uint32_t DCRSR;                  /*!< Offset: 0x004 ( /W)  Debug Core Register Selector Reg
1429:Drivers/CMSIS/Include/core_cm4.h ****   __IOM uint32_t DCRDR;                  /*!< Offset: 0x008 (R/W)  Debug Core Register Data Registe
1430:Drivers/CMSIS/Include/core_cm4.h ****   __IOM uint32_t DEMCR;                  /*!< Offset: 0x00C (R/W)  Debug Exception and Monitor Cont
1431:Drivers/CMSIS/Include/core_cm4.h **** } CoreDebug_Type;
1432:Drivers/CMSIS/Include/core_cm4.h **** 
1433:Drivers/CMSIS/Include/core_cm4.h **** /* Debug Halting Control and Status Register Definitions */
1434:Drivers/CMSIS/Include/core_cm4.h **** #define CoreDebug_DHCSR_DBGKEY_Pos         16U                                            /*!< Core
1435:Drivers/CMSIS/Include/core_cm4.h **** #define CoreDebug_DHCSR_DBGKEY_Msk         (0xFFFFUL << CoreDebug_DHCSR_DBGKEY_Pos)       /*!< Core
1436:Drivers/CMSIS/Include/core_cm4.h **** 
1437:Drivers/CMSIS/Include/core_cm4.h **** #define CoreDebug_DHCSR_S_RESET_ST_Pos     25U                                            /*!< Core
1438:Drivers/CMSIS/Include/core_cm4.h **** #define CoreDebug_DHCSR_S_RESET_ST_Msk     (1UL << CoreDebug_DHCSR_S_RESET_ST_Pos)        /*!< Core
1439:Drivers/CMSIS/Include/core_cm4.h **** 
1440:Drivers/CMSIS/Include/core_cm4.h **** #define CoreDebug_DHCSR_S_RETIRE_ST_Pos    24U                                            /*!< Core
1441:Drivers/CMSIS/Include/core_cm4.h **** #define CoreDebug_DHCSR_S_RETIRE_ST_Msk    (1UL << CoreDebug_DHCSR_S_RETIRE_ST_Pos)       /*!< Core
1442:Drivers/CMSIS/Include/core_cm4.h **** 
1443:Drivers/CMSIS/Include/core_cm4.h **** #define CoreDebug_DHCSR_S_LOCKUP_Pos       19U                                            /*!< Core
1444:Drivers/CMSIS/Include/core_cm4.h **** #define CoreDebug_DHCSR_S_LOCKUP_Msk       (1UL << CoreDebug_DHCSR_S_LOCKUP_Pos)          /*!< Core
1445:Drivers/CMSIS/Include/core_cm4.h **** 
1446:Drivers/CMSIS/Include/core_cm4.h **** #define CoreDebug_DHCSR_S_SLEEP_Pos        18U                                            /*!< Core
1447:Drivers/CMSIS/Include/core_cm4.h **** #define CoreDebug_DHCSR_S_SLEEP_Msk        (1UL << CoreDebug_DHCSR_S_SLEEP_Pos)           /*!< Core
1448:Drivers/CMSIS/Include/core_cm4.h **** 
1449:Drivers/CMSIS/Include/core_cm4.h **** #define CoreDebug_DHCSR_S_HALT_Pos         17U                                            /*!< Core
1450:Drivers/CMSIS/Include/core_cm4.h **** #define CoreDebug_DHCSR_S_HALT_Msk         (1UL << CoreDebug_DHCSR_S_HALT_Pos)            /*!< Core
1451:Drivers/CMSIS/Include/core_cm4.h **** 
1452:Drivers/CMSIS/Include/core_cm4.h **** #define CoreDebug_DHCSR_S_REGRDY_Pos       16U                                            /*!< Core
1453:Drivers/CMSIS/Include/core_cm4.h **** #define CoreDebug_DHCSR_S_REGRDY_Msk       (1UL << CoreDebug_DHCSR_S_REGRDY_Pos)          /*!< Core
1454:Drivers/CMSIS/Include/core_cm4.h **** 
1455:Drivers/CMSIS/Include/core_cm4.h **** #define CoreDebug_DHCSR_C_SNAPSTALL_Pos     5U                                            /*!< Core
1456:Drivers/CMSIS/Include/core_cm4.h **** #define CoreDebug_DHCSR_C_SNAPSTALL_Msk    (1UL << CoreDebug_DHCSR_C_SNAPSTALL_Pos)       /*!< Core
1457:Drivers/CMSIS/Include/core_cm4.h **** 
1458:Drivers/CMSIS/Include/core_cm4.h **** #define CoreDebug_DHCSR_C_MASKINTS_Pos      3U                                            /*!< Core
1459:Drivers/CMSIS/Include/core_cm4.h **** #define CoreDebug_DHCSR_C_MASKINTS_Msk     (1UL << CoreDebug_DHCSR_C_MASKINTS_Pos)        /*!< Core
1460:Drivers/CMSIS/Include/core_cm4.h **** 
1461:Drivers/CMSIS/Include/core_cm4.h **** #define CoreDebug_DHCSR_C_STEP_Pos          2U                                            /*!< Core
1462:Drivers/CMSIS/Include/core_cm4.h **** #define CoreDebug_DHCSR_C_STEP_Msk         (1UL << CoreDebug_DHCSR_C_STEP_Pos)            /*!< Core
1463:Drivers/CMSIS/Include/core_cm4.h **** 
1464:Drivers/CMSIS/Include/core_cm4.h **** #define CoreDebug_DHCSR_C_HALT_Pos          1U                                            /*!< Core
1465:Drivers/CMSIS/Include/core_cm4.h **** #define CoreDebug_DHCSR_C_HALT_Msk         (1UL << CoreDebug_DHCSR_C_HALT_Pos)            /*!< Core
1466:Drivers/CMSIS/Include/core_cm4.h **** 
1467:Drivers/CMSIS/Include/core_cm4.h **** #define CoreDebug_DHCSR_C_DEBUGEN_Pos       0U                                            /*!< Core
1468:Drivers/CMSIS/Include/core_cm4.h **** #define CoreDebug_DHCSR_C_DEBUGEN_Msk      (1UL /*<< CoreDebug_DHCSR_C_DEBUGEN_Pos*/)     /*!< Core
1469:Drivers/CMSIS/Include/core_cm4.h **** 
1470:Drivers/CMSIS/Include/core_cm4.h **** /* Debug Core Register Selector Register Definitions */
1471:Drivers/CMSIS/Include/core_cm4.h **** #define CoreDebug_DCRSR_REGWnR_Pos         16U                                            /*!< Core
1472:Drivers/CMSIS/Include/core_cm4.h **** #define CoreDebug_DCRSR_REGWnR_Msk         (1UL << CoreDebug_DCRSR_REGWnR_Pos)            /*!< Core
1473:Drivers/CMSIS/Include/core_cm4.h **** 
1474:Drivers/CMSIS/Include/core_cm4.h **** #define CoreDebug_DCRSR_REGSEL_Pos          0U                                            /*!< Core
1475:Drivers/CMSIS/Include/core_cm4.h **** #define CoreDebug_DCRSR_REGSEL_Msk         (0x1FUL /*<< CoreDebug_DCRSR_REGSEL_Pos*/)     /*!< Core
ARM GAS  C:\Users\neko2\AppData\Local\Temp\ccWG4MHW.s 			page 57


1476:Drivers/CMSIS/Include/core_cm4.h **** 
1477:Drivers/CMSIS/Include/core_cm4.h **** /* Debug Exception and Monitor Control Register Definitions */
1478:Drivers/CMSIS/Include/core_cm4.h **** #define CoreDebug_DEMCR_TRCENA_Pos         24U                                            /*!< Core
1479:Drivers/CMSIS/Include/core_cm4.h **** #define CoreDebug_DEMCR_TRCENA_Msk         (1UL << CoreDebug_DEMCR_TRCENA_Pos)            /*!< Core
1480:Drivers/CMSIS/Include/core_cm4.h **** 
1481:Drivers/CMSIS/Include/core_cm4.h **** #define CoreDebug_DEMCR_MON_REQ_Pos        19U                                            /*!< Core
1482:Drivers/CMSIS/Include/core_cm4.h **** #define CoreDebug_DEMCR_MON_REQ_Msk        (1UL << CoreDebug_DEMCR_MON_REQ_Pos)           /*!< Core
1483:Drivers/CMSIS/Include/core_cm4.h **** 
1484:Drivers/CMSIS/Include/core_cm4.h **** #define CoreDebug_DEMCR_MON_STEP_Pos       18U                                            /*!< Core
1485:Drivers/CMSIS/Include/core_cm4.h **** #define CoreDebug_DEMCR_MON_STEP_Msk       (1UL << CoreDebug_DEMCR_MON_STEP_Pos)          /*!< Core
1486:Drivers/CMSIS/Include/core_cm4.h **** 
1487:Drivers/CMSIS/Include/core_cm4.h **** #define CoreDebug_DEMCR_MON_PEND_Pos       17U                                            /*!< Core
1488:Drivers/CMSIS/Include/core_cm4.h **** #define CoreDebug_DEMCR_MON_PEND_Msk       (1UL << CoreDebug_DEMCR_MON_PEND_Pos)          /*!< Core
1489:Drivers/CMSIS/Include/core_cm4.h **** 
1490:Drivers/CMSIS/Include/core_cm4.h **** #define CoreDebug_DEMCR_MON_EN_Pos         16U                                            /*!< Core
1491:Drivers/CMSIS/Include/core_cm4.h **** #define CoreDebug_DEMCR_MON_EN_Msk         (1UL << CoreDebug_DEMCR_MON_EN_Pos)            /*!< Core
1492:Drivers/CMSIS/Include/core_cm4.h **** 
1493:Drivers/CMSIS/Include/core_cm4.h **** #define CoreDebug_DEMCR_VC_HARDERR_Pos     10U                                            /*!< Core
1494:Drivers/CMSIS/Include/core_cm4.h **** #define CoreDebug_DEMCR_VC_HARDERR_Msk     (1UL << CoreDebug_DEMCR_VC_HARDERR_Pos)        /*!< Core
1495:Drivers/CMSIS/Include/core_cm4.h **** 
1496:Drivers/CMSIS/Include/core_cm4.h **** #define CoreDebug_DEMCR_VC_INTERR_Pos       9U                                            /*!< Core
1497:Drivers/CMSIS/Include/core_cm4.h **** #define CoreDebug_DEMCR_VC_INTERR_Msk      (1UL << CoreDebug_DEMCR_VC_INTERR_Pos)         /*!< Core
1498:Drivers/CMSIS/Include/core_cm4.h **** 
1499:Drivers/CMSIS/Include/core_cm4.h **** #define CoreDebug_DEMCR_VC_BUSERR_Pos       8U                                            /*!< Core
1500:Drivers/CMSIS/Include/core_cm4.h **** #define CoreDebug_DEMCR_VC_BUSERR_Msk      (1UL << CoreDebug_DEMCR_VC_BUSERR_Pos)         /*!< Core
1501:Drivers/CMSIS/Include/core_cm4.h **** 
1502:Drivers/CMSIS/Include/core_cm4.h **** #define CoreDebug_DEMCR_VC_STATERR_Pos      7U                                            /*!< Core
1503:Drivers/CMSIS/Include/core_cm4.h **** #define CoreDebug_DEMCR_VC_STATERR_Msk     (1UL << CoreDebug_DEMCR_VC_STATERR_Pos)        /*!< Core
1504:Drivers/CMSIS/Include/core_cm4.h **** 
1505:Drivers/CMSIS/Include/core_cm4.h **** #define CoreDebug_DEMCR_VC_CHKERR_Pos       6U                                            /*!< Core
1506:Drivers/CMSIS/Include/core_cm4.h **** #define CoreDebug_DEMCR_VC_CHKERR_Msk      (1UL << CoreDebug_DEMCR_VC_CHKERR_Pos)         /*!< Core
1507:Drivers/CMSIS/Include/core_cm4.h **** 
1508:Drivers/CMSIS/Include/core_cm4.h **** #define CoreDebug_DEMCR_VC_NOCPERR_Pos      5U                                            /*!< Core
1509:Drivers/CMSIS/Include/core_cm4.h **** #define CoreDebug_DEMCR_VC_NOCPERR_Msk     (1UL << CoreDebug_DEMCR_VC_NOCPERR_Pos)        /*!< Core
1510:Drivers/CMSIS/Include/core_cm4.h **** 
1511:Drivers/CMSIS/Include/core_cm4.h **** #define CoreDebug_DEMCR_VC_MMERR_Pos        4U                                            /*!< Core
1512:Drivers/CMSIS/Include/core_cm4.h **** #define CoreDebug_DEMCR_VC_MMERR_Msk       (1UL << CoreDebug_DEMCR_VC_MMERR_Pos)          /*!< Core
1513:Drivers/CMSIS/Include/core_cm4.h **** 
1514:Drivers/CMSIS/Include/core_cm4.h **** #define CoreDebug_DEMCR_VC_CORERESET_Pos    0U                                            /*!< Core
1515:Drivers/CMSIS/Include/core_cm4.h **** #define CoreDebug_DEMCR_VC_CORERESET_Msk   (1UL /*<< CoreDebug_DEMCR_VC_CORERESET_Pos*/)  /*!< Core
1516:Drivers/CMSIS/Include/core_cm4.h **** 
1517:Drivers/CMSIS/Include/core_cm4.h **** /*@} end of group CMSIS_CoreDebug */
1518:Drivers/CMSIS/Include/core_cm4.h **** 
1519:Drivers/CMSIS/Include/core_cm4.h **** 
1520:Drivers/CMSIS/Include/core_cm4.h **** /**
1521:Drivers/CMSIS/Include/core_cm4.h ****   \ingroup    CMSIS_core_register
1522:Drivers/CMSIS/Include/core_cm4.h ****   \defgroup   CMSIS_core_bitfield     Core register bit field macros
1523:Drivers/CMSIS/Include/core_cm4.h ****   \brief      Macros for use with bit field definitions (xxx_Pos, xxx_Msk).
1524:Drivers/CMSIS/Include/core_cm4.h ****   @{
1525:Drivers/CMSIS/Include/core_cm4.h ****  */
1526:Drivers/CMSIS/Include/core_cm4.h **** 
1527:Drivers/CMSIS/Include/core_cm4.h **** /**
1528:Drivers/CMSIS/Include/core_cm4.h ****   \brief   Mask and shift a bit field value for use in a register bit range.
1529:Drivers/CMSIS/Include/core_cm4.h ****   \param[in] field  Name of the register bit field.
1530:Drivers/CMSIS/Include/core_cm4.h ****   \param[in] value  Value of the bit field. This parameter is interpreted as an uint32_t type.
1531:Drivers/CMSIS/Include/core_cm4.h ****   \return           Masked and shifted value.
1532:Drivers/CMSIS/Include/core_cm4.h **** */
ARM GAS  C:\Users\neko2\AppData\Local\Temp\ccWG4MHW.s 			page 58


1533:Drivers/CMSIS/Include/core_cm4.h **** #define _VAL2FLD(field, value)    (((uint32_t)(value) << field ## _Pos) & field ## _Msk)
1534:Drivers/CMSIS/Include/core_cm4.h **** 
1535:Drivers/CMSIS/Include/core_cm4.h **** /**
1536:Drivers/CMSIS/Include/core_cm4.h ****   \brief     Mask and shift a register value to extract a bit filed value.
1537:Drivers/CMSIS/Include/core_cm4.h ****   \param[in] field  Name of the register bit field.
1538:Drivers/CMSIS/Include/core_cm4.h ****   \param[in] value  Value of register. This parameter is interpreted as an uint32_t type.
1539:Drivers/CMSIS/Include/core_cm4.h ****   \return           Masked and shifted bit field value.
1540:Drivers/CMSIS/Include/core_cm4.h **** */
1541:Drivers/CMSIS/Include/core_cm4.h **** #define _FLD2VAL(field, value)    (((uint32_t)(value) & field ## _Msk) >> field ## _Pos)
1542:Drivers/CMSIS/Include/core_cm4.h **** 
1543:Drivers/CMSIS/Include/core_cm4.h **** /*@} end of group CMSIS_core_bitfield */
1544:Drivers/CMSIS/Include/core_cm4.h **** 
1545:Drivers/CMSIS/Include/core_cm4.h **** 
1546:Drivers/CMSIS/Include/core_cm4.h **** /**
1547:Drivers/CMSIS/Include/core_cm4.h ****   \ingroup    CMSIS_core_register
1548:Drivers/CMSIS/Include/core_cm4.h ****   \defgroup   CMSIS_core_base     Core Definitions
1549:Drivers/CMSIS/Include/core_cm4.h ****   \brief      Definitions for base addresses, unions, and structures.
1550:Drivers/CMSIS/Include/core_cm4.h ****   @{
1551:Drivers/CMSIS/Include/core_cm4.h ****  */
1552:Drivers/CMSIS/Include/core_cm4.h **** 
1553:Drivers/CMSIS/Include/core_cm4.h **** /* Memory mapping of Core Hardware */
1554:Drivers/CMSIS/Include/core_cm4.h **** #define SCS_BASE            (0xE000E000UL)                            /*!< System Control Space Bas
1555:Drivers/CMSIS/Include/core_cm4.h **** #define ITM_BASE            (0xE0000000UL)                            /*!< ITM Base Address */
1556:Drivers/CMSIS/Include/core_cm4.h **** #define DWT_BASE            (0xE0001000UL)                            /*!< DWT Base Address */
1557:Drivers/CMSIS/Include/core_cm4.h **** #define TPI_BASE            (0xE0040000UL)                            /*!< TPI Base Address */
1558:Drivers/CMSIS/Include/core_cm4.h **** #define CoreDebug_BASE      (0xE000EDF0UL)                            /*!< Core Debug Base Address 
1559:Drivers/CMSIS/Include/core_cm4.h **** #define SysTick_BASE        (SCS_BASE +  0x0010UL)                    /*!< SysTick Base Address */
1560:Drivers/CMSIS/Include/core_cm4.h **** #define NVIC_BASE           (SCS_BASE +  0x0100UL)                    /*!< NVIC Base Address */
1561:Drivers/CMSIS/Include/core_cm4.h **** #define SCB_BASE            (SCS_BASE +  0x0D00UL)                    /*!< System Control Block Bas
1562:Drivers/CMSIS/Include/core_cm4.h **** 
1563:Drivers/CMSIS/Include/core_cm4.h **** #define SCnSCB              ((SCnSCB_Type    *)     SCS_BASE      )   /*!< System control Register 
1564:Drivers/CMSIS/Include/core_cm4.h **** #define SCB                 ((SCB_Type       *)     SCB_BASE      )   /*!< SCB configuration struct
1565:Drivers/CMSIS/Include/core_cm4.h **** #define SysTick             ((SysTick_Type   *)     SysTick_BASE  )   /*!< SysTick configuration st
1566:Drivers/CMSIS/Include/core_cm4.h **** #define NVIC                ((NVIC_Type      *)     NVIC_BASE     )   /*!< NVIC configuration struc
1567:Drivers/CMSIS/Include/core_cm4.h **** #define ITM                 ((ITM_Type       *)     ITM_BASE      )   /*!< ITM configuration struct
1568:Drivers/CMSIS/Include/core_cm4.h **** #define DWT                 ((DWT_Type       *)     DWT_BASE      )   /*!< DWT configuration struct
1569:Drivers/CMSIS/Include/core_cm4.h **** #define TPI                 ((TPI_Type       *)     TPI_BASE      )   /*!< TPI configuration struct
1570:Drivers/CMSIS/Include/core_cm4.h **** #define CoreDebug           ((CoreDebug_Type *)     CoreDebug_BASE)   /*!< Core Debug configuration
1571:Drivers/CMSIS/Include/core_cm4.h **** 
1572:Drivers/CMSIS/Include/core_cm4.h **** #if defined (__MPU_PRESENT) && (__MPU_PRESENT == 1U)
1573:Drivers/CMSIS/Include/core_cm4.h ****   #define MPU_BASE          (SCS_BASE +  0x0D90UL)                    /*!< Memory Protection Unit *
1574:Drivers/CMSIS/Include/core_cm4.h ****   #define MPU               ((MPU_Type       *)     MPU_BASE      )   /*!< Memory Protection Unit *
1575:Drivers/CMSIS/Include/core_cm4.h **** #endif
1576:Drivers/CMSIS/Include/core_cm4.h **** 
1577:Drivers/CMSIS/Include/core_cm4.h **** #define FPU_BASE            (SCS_BASE +  0x0F30UL)                    /*!< Floating Point Unit */
1578:Drivers/CMSIS/Include/core_cm4.h **** #define FPU                 ((FPU_Type       *)     FPU_BASE      )   /*!< Floating Point Unit */
1579:Drivers/CMSIS/Include/core_cm4.h **** 
1580:Drivers/CMSIS/Include/core_cm4.h **** /*@} */
1581:Drivers/CMSIS/Include/core_cm4.h **** 
1582:Drivers/CMSIS/Include/core_cm4.h **** 
1583:Drivers/CMSIS/Include/core_cm4.h **** 
1584:Drivers/CMSIS/Include/core_cm4.h **** /*******************************************************************************
1585:Drivers/CMSIS/Include/core_cm4.h ****  *                Hardware Abstraction Layer
1586:Drivers/CMSIS/Include/core_cm4.h ****   Core Function Interface contains:
1587:Drivers/CMSIS/Include/core_cm4.h ****   - Core NVIC Functions
1588:Drivers/CMSIS/Include/core_cm4.h ****   - Core SysTick Functions
1589:Drivers/CMSIS/Include/core_cm4.h ****   - Core Debug Functions
ARM GAS  C:\Users\neko2\AppData\Local\Temp\ccWG4MHW.s 			page 59


1590:Drivers/CMSIS/Include/core_cm4.h ****   - Core Register Access Functions
1591:Drivers/CMSIS/Include/core_cm4.h ****  ******************************************************************************/
1592:Drivers/CMSIS/Include/core_cm4.h **** /**
1593:Drivers/CMSIS/Include/core_cm4.h ****   \defgroup CMSIS_Core_FunctionInterface Functions and Instructions Reference
1594:Drivers/CMSIS/Include/core_cm4.h **** */
1595:Drivers/CMSIS/Include/core_cm4.h **** 
1596:Drivers/CMSIS/Include/core_cm4.h **** 
1597:Drivers/CMSIS/Include/core_cm4.h **** 
1598:Drivers/CMSIS/Include/core_cm4.h **** /* ##########################   NVIC functions  #################################### */
1599:Drivers/CMSIS/Include/core_cm4.h **** /**
1600:Drivers/CMSIS/Include/core_cm4.h ****   \ingroup  CMSIS_Core_FunctionInterface
1601:Drivers/CMSIS/Include/core_cm4.h ****   \defgroup CMSIS_Core_NVICFunctions NVIC Functions
1602:Drivers/CMSIS/Include/core_cm4.h ****   \brief    Functions that manage interrupts and exceptions via the NVIC.
1603:Drivers/CMSIS/Include/core_cm4.h ****   @{
1604:Drivers/CMSIS/Include/core_cm4.h ****  */
1605:Drivers/CMSIS/Include/core_cm4.h **** 
1606:Drivers/CMSIS/Include/core_cm4.h **** #ifdef CMSIS_NVIC_VIRTUAL
1607:Drivers/CMSIS/Include/core_cm4.h ****   #ifndef CMSIS_NVIC_VIRTUAL_HEADER_FILE
1608:Drivers/CMSIS/Include/core_cm4.h ****     #define CMSIS_NVIC_VIRTUAL_HEADER_FILE "cmsis_nvic_virtual.h"
1609:Drivers/CMSIS/Include/core_cm4.h ****   #endif
1610:Drivers/CMSIS/Include/core_cm4.h ****   #include CMSIS_NVIC_VIRTUAL_HEADER_FILE
1611:Drivers/CMSIS/Include/core_cm4.h **** #else
1612:Drivers/CMSIS/Include/core_cm4.h ****   #define NVIC_SetPriorityGrouping    __NVIC_SetPriorityGrouping
1613:Drivers/CMSIS/Include/core_cm4.h ****   #define NVIC_GetPriorityGrouping    __NVIC_GetPriorityGrouping
1614:Drivers/CMSIS/Include/core_cm4.h ****   #define NVIC_EnableIRQ              __NVIC_EnableIRQ
1615:Drivers/CMSIS/Include/core_cm4.h ****   #define NVIC_GetEnableIRQ           __NVIC_GetEnableIRQ
1616:Drivers/CMSIS/Include/core_cm4.h ****   #define NVIC_DisableIRQ             __NVIC_DisableIRQ
1617:Drivers/CMSIS/Include/core_cm4.h ****   #define NVIC_GetPendingIRQ          __NVIC_GetPendingIRQ
1618:Drivers/CMSIS/Include/core_cm4.h ****   #define NVIC_SetPendingIRQ          __NVIC_SetPendingIRQ
1619:Drivers/CMSIS/Include/core_cm4.h ****   #define NVIC_ClearPendingIRQ        __NVIC_ClearPendingIRQ
1620:Drivers/CMSIS/Include/core_cm4.h ****   #define NVIC_GetActive              __NVIC_GetActive
1621:Drivers/CMSIS/Include/core_cm4.h ****   #define NVIC_SetPriority            __NVIC_SetPriority
1622:Drivers/CMSIS/Include/core_cm4.h ****   #define NVIC_GetPriority            __NVIC_GetPriority
1623:Drivers/CMSIS/Include/core_cm4.h ****   #define NVIC_SystemReset            __NVIC_SystemReset
1624:Drivers/CMSIS/Include/core_cm4.h **** #endif /* CMSIS_NVIC_VIRTUAL */
1625:Drivers/CMSIS/Include/core_cm4.h **** 
1626:Drivers/CMSIS/Include/core_cm4.h **** #ifdef CMSIS_VECTAB_VIRTUAL
1627:Drivers/CMSIS/Include/core_cm4.h ****   #ifndef CMSIS_VECTAB_VIRTUAL_HEADER_FILE
1628:Drivers/CMSIS/Include/core_cm4.h ****    #define CMSIS_VECTAB_VIRTUAL_HEADER_FILE "cmsis_vectab_virtual.h"
1629:Drivers/CMSIS/Include/core_cm4.h ****   #endif
1630:Drivers/CMSIS/Include/core_cm4.h ****   #include CMSIS_VECTAB_VIRTUAL_HEADER_FILE
1631:Drivers/CMSIS/Include/core_cm4.h **** #else
1632:Drivers/CMSIS/Include/core_cm4.h ****   #define NVIC_SetVector              __NVIC_SetVector
1633:Drivers/CMSIS/Include/core_cm4.h ****   #define NVIC_GetVector              __NVIC_GetVector
1634:Drivers/CMSIS/Include/core_cm4.h **** #endif  /* (CMSIS_VECTAB_VIRTUAL) */
1635:Drivers/CMSIS/Include/core_cm4.h **** 
1636:Drivers/CMSIS/Include/core_cm4.h **** #define NVIC_USER_IRQ_OFFSET          16
1637:Drivers/CMSIS/Include/core_cm4.h **** 
1638:Drivers/CMSIS/Include/core_cm4.h **** 
1639:Drivers/CMSIS/Include/core_cm4.h **** /* The following EXC_RETURN values are saved the LR on exception entry */
1640:Drivers/CMSIS/Include/core_cm4.h **** #define EXC_RETURN_HANDLER         (0xFFFFFFF1UL)     /* return to Handler mode, uses MSP after ret
1641:Drivers/CMSIS/Include/core_cm4.h **** #define EXC_RETURN_THREAD_MSP      (0xFFFFFFF9UL)     /* return to Thread mode, uses MSP after retu
1642:Drivers/CMSIS/Include/core_cm4.h **** #define EXC_RETURN_THREAD_PSP      (0xFFFFFFFDUL)     /* return to Thread mode, uses PSP after retu
1643:Drivers/CMSIS/Include/core_cm4.h **** #define EXC_RETURN_HANDLER_FPU     (0xFFFFFFE1UL)     /* return to Handler mode, uses MSP after ret
1644:Drivers/CMSIS/Include/core_cm4.h **** #define EXC_RETURN_THREAD_MSP_FPU  (0xFFFFFFE9UL)     /* return to Thread mode, uses MSP after retu
1645:Drivers/CMSIS/Include/core_cm4.h **** #define EXC_RETURN_THREAD_PSP_FPU  (0xFFFFFFEDUL)     /* return to Thread mode, uses PSP after retu
1646:Drivers/CMSIS/Include/core_cm4.h **** 
ARM GAS  C:\Users\neko2\AppData\Local\Temp\ccWG4MHW.s 			page 60


1647:Drivers/CMSIS/Include/core_cm4.h **** 
1648:Drivers/CMSIS/Include/core_cm4.h **** /**
1649:Drivers/CMSIS/Include/core_cm4.h ****   \brief   Set Priority Grouping
1650:Drivers/CMSIS/Include/core_cm4.h ****   \details Sets the priority grouping field using the required unlock sequence.
1651:Drivers/CMSIS/Include/core_cm4.h ****            The parameter PriorityGroup is assigned to the field SCB->AIRCR [10:8] PRIGROUP field.
1652:Drivers/CMSIS/Include/core_cm4.h ****            Only values from 0..7 are used.
1653:Drivers/CMSIS/Include/core_cm4.h ****            In case of a conflict between priority grouping and available
1654:Drivers/CMSIS/Include/core_cm4.h ****            priority bits (__NVIC_PRIO_BITS), the smallest possible priority group is set.
1655:Drivers/CMSIS/Include/core_cm4.h ****   \param [in]      PriorityGroup  Priority grouping field.
1656:Drivers/CMSIS/Include/core_cm4.h ****  */
1657:Drivers/CMSIS/Include/core_cm4.h **** __STATIC_INLINE void __NVIC_SetPriorityGrouping(uint32_t PriorityGroup)
1658:Drivers/CMSIS/Include/core_cm4.h **** {
1659:Drivers/CMSIS/Include/core_cm4.h ****   uint32_t reg_value;
1660:Drivers/CMSIS/Include/core_cm4.h ****   uint32_t PriorityGroupTmp = (PriorityGroup & (uint32_t)0x07UL);             /* only values 0..7 a
1661:Drivers/CMSIS/Include/core_cm4.h **** 
1662:Drivers/CMSIS/Include/core_cm4.h ****   reg_value  =  SCB->AIRCR;                                                   /* read old register 
1663:Drivers/CMSIS/Include/core_cm4.h ****   reg_value &= ~((uint32_t)(SCB_AIRCR_VECTKEY_Msk | SCB_AIRCR_PRIGROUP_Msk)); /* clear bits to chan
1664:Drivers/CMSIS/Include/core_cm4.h ****   reg_value  =  (reg_value                                   |
1665:Drivers/CMSIS/Include/core_cm4.h ****                 ((uint32_t)0x5FAUL << SCB_AIRCR_VECTKEY_Pos) |
1666:Drivers/CMSIS/Include/core_cm4.h ****                 (PriorityGroupTmp << SCB_AIRCR_PRIGROUP_Pos)  );              /* Insert write key a
1667:Drivers/CMSIS/Include/core_cm4.h ****   SCB->AIRCR =  reg_value;
1668:Drivers/CMSIS/Include/core_cm4.h **** }
1669:Drivers/CMSIS/Include/core_cm4.h **** 
1670:Drivers/CMSIS/Include/core_cm4.h **** 
1671:Drivers/CMSIS/Include/core_cm4.h **** /**
1672:Drivers/CMSIS/Include/core_cm4.h ****   \brief   Get Priority Grouping
1673:Drivers/CMSIS/Include/core_cm4.h ****   \details Reads the priority grouping field from the NVIC Interrupt Controller.
1674:Drivers/CMSIS/Include/core_cm4.h ****   \return                Priority grouping field (SCB->AIRCR [10:8] PRIGROUP field).
1675:Drivers/CMSIS/Include/core_cm4.h ****  */
1676:Drivers/CMSIS/Include/core_cm4.h **** __STATIC_INLINE uint32_t __NVIC_GetPriorityGrouping(void)
1677:Drivers/CMSIS/Include/core_cm4.h **** {
1678:Drivers/CMSIS/Include/core_cm4.h ****   return ((uint32_t)((SCB->AIRCR & SCB_AIRCR_PRIGROUP_Msk) >> SCB_AIRCR_PRIGROUP_Pos));
1679:Drivers/CMSIS/Include/core_cm4.h **** }
1680:Drivers/CMSIS/Include/core_cm4.h **** 
1681:Drivers/CMSIS/Include/core_cm4.h **** 
1682:Drivers/CMSIS/Include/core_cm4.h **** /**
1683:Drivers/CMSIS/Include/core_cm4.h ****   \brief   Enable Interrupt
1684:Drivers/CMSIS/Include/core_cm4.h ****   \details Enables a device specific interrupt in the NVIC interrupt controller.
1685:Drivers/CMSIS/Include/core_cm4.h ****   \param [in]      IRQn  Device specific interrupt number.
1686:Drivers/CMSIS/Include/core_cm4.h ****   \note    IRQn must not be negative.
1687:Drivers/CMSIS/Include/core_cm4.h ****  */
1688:Drivers/CMSIS/Include/core_cm4.h **** __STATIC_INLINE void __NVIC_EnableIRQ(IRQn_Type IRQn)
1689:Drivers/CMSIS/Include/core_cm4.h **** {
1690:Drivers/CMSIS/Include/core_cm4.h ****   if ((int32_t)(IRQn) >= 0)
1691:Drivers/CMSIS/Include/core_cm4.h ****   {
1692:Drivers/CMSIS/Include/core_cm4.h ****     NVIC->ISER[(((uint32_t)IRQn) >> 5UL)] = (uint32_t)(1UL << (((uint32_t)IRQn) & 0x1FUL));
1693:Drivers/CMSIS/Include/core_cm4.h ****   }
1694:Drivers/CMSIS/Include/core_cm4.h **** }
1695:Drivers/CMSIS/Include/core_cm4.h **** 
1696:Drivers/CMSIS/Include/core_cm4.h **** 
1697:Drivers/CMSIS/Include/core_cm4.h **** /**
1698:Drivers/CMSIS/Include/core_cm4.h ****   \brief   Get Interrupt Enable status
1699:Drivers/CMSIS/Include/core_cm4.h ****   \details Returns a device specific interrupt enable status from the NVIC interrupt controller.
1700:Drivers/CMSIS/Include/core_cm4.h ****   \param [in]      IRQn  Device specific interrupt number.
1701:Drivers/CMSIS/Include/core_cm4.h ****   \return             0  Interrupt is not enabled.
1702:Drivers/CMSIS/Include/core_cm4.h ****   \return             1  Interrupt is enabled.
1703:Drivers/CMSIS/Include/core_cm4.h ****   \note    IRQn must not be negative.
ARM GAS  C:\Users\neko2\AppData\Local\Temp\ccWG4MHW.s 			page 61


1704:Drivers/CMSIS/Include/core_cm4.h ****  */
1705:Drivers/CMSIS/Include/core_cm4.h **** __STATIC_INLINE uint32_t __NVIC_GetEnableIRQ(IRQn_Type IRQn)
1706:Drivers/CMSIS/Include/core_cm4.h **** {
1707:Drivers/CMSIS/Include/core_cm4.h ****   if ((int32_t)(IRQn) >= 0)
1708:Drivers/CMSIS/Include/core_cm4.h ****   {
1709:Drivers/CMSIS/Include/core_cm4.h ****     return((uint32_t)(((NVIC->ISER[(((uint32_t)IRQn) >> 5UL)] & (1UL << (((uint32_t)IRQn) & 0x1FUL)
1710:Drivers/CMSIS/Include/core_cm4.h ****   }
1711:Drivers/CMSIS/Include/core_cm4.h ****   else
1712:Drivers/CMSIS/Include/core_cm4.h ****   {
1713:Drivers/CMSIS/Include/core_cm4.h ****     return(0U);
1714:Drivers/CMSIS/Include/core_cm4.h ****   }
1715:Drivers/CMSIS/Include/core_cm4.h **** }
1716:Drivers/CMSIS/Include/core_cm4.h **** 
1717:Drivers/CMSIS/Include/core_cm4.h **** 
1718:Drivers/CMSIS/Include/core_cm4.h **** /**
1719:Drivers/CMSIS/Include/core_cm4.h ****   \brief   Disable Interrupt
1720:Drivers/CMSIS/Include/core_cm4.h ****   \details Disables a device specific interrupt in the NVIC interrupt controller.
1721:Drivers/CMSIS/Include/core_cm4.h ****   \param [in]      IRQn  Device specific interrupt number.
1722:Drivers/CMSIS/Include/core_cm4.h ****   \note    IRQn must not be negative.
1723:Drivers/CMSIS/Include/core_cm4.h ****  */
1724:Drivers/CMSIS/Include/core_cm4.h **** __STATIC_INLINE void __NVIC_DisableIRQ(IRQn_Type IRQn)
1725:Drivers/CMSIS/Include/core_cm4.h **** {
1726:Drivers/CMSIS/Include/core_cm4.h ****   if ((int32_t)(IRQn) >= 0)
1727:Drivers/CMSIS/Include/core_cm4.h ****   {
1728:Drivers/CMSIS/Include/core_cm4.h ****     NVIC->ICER[(((uint32_t)IRQn) >> 5UL)] = (uint32_t)(1UL << (((uint32_t)IRQn) & 0x1FUL));
1729:Drivers/CMSIS/Include/core_cm4.h ****     __DSB();
1730:Drivers/CMSIS/Include/core_cm4.h ****     __ISB();
1731:Drivers/CMSIS/Include/core_cm4.h ****   }
1732:Drivers/CMSIS/Include/core_cm4.h **** }
1733:Drivers/CMSIS/Include/core_cm4.h **** 
1734:Drivers/CMSIS/Include/core_cm4.h **** 
1735:Drivers/CMSIS/Include/core_cm4.h **** /**
1736:Drivers/CMSIS/Include/core_cm4.h ****   \brief   Get Pending Interrupt
1737:Drivers/CMSIS/Include/core_cm4.h ****   \details Reads the NVIC pending register and returns the pending bit for the specified device spe
1738:Drivers/CMSIS/Include/core_cm4.h ****   \param [in]      IRQn  Device specific interrupt number.
1739:Drivers/CMSIS/Include/core_cm4.h ****   \return             0  Interrupt status is not pending.
1740:Drivers/CMSIS/Include/core_cm4.h ****   \return             1  Interrupt status is pending.
1741:Drivers/CMSIS/Include/core_cm4.h ****   \note    IRQn must not be negative.
1742:Drivers/CMSIS/Include/core_cm4.h ****  */
1743:Drivers/CMSIS/Include/core_cm4.h **** __STATIC_INLINE uint32_t __NVIC_GetPendingIRQ(IRQn_Type IRQn)
1744:Drivers/CMSIS/Include/core_cm4.h **** {
1745:Drivers/CMSIS/Include/core_cm4.h ****   if ((int32_t)(IRQn) >= 0)
1746:Drivers/CMSIS/Include/core_cm4.h ****   {
1747:Drivers/CMSIS/Include/core_cm4.h ****     return((uint32_t)(((NVIC->ISPR[(((uint32_t)IRQn) >> 5UL)] & (1UL << (((uint32_t)IRQn) & 0x1FUL)
1748:Drivers/CMSIS/Include/core_cm4.h ****   }
1749:Drivers/CMSIS/Include/core_cm4.h ****   else
1750:Drivers/CMSIS/Include/core_cm4.h ****   {
1751:Drivers/CMSIS/Include/core_cm4.h ****     return(0U);
1752:Drivers/CMSIS/Include/core_cm4.h ****   }
1753:Drivers/CMSIS/Include/core_cm4.h **** }
1754:Drivers/CMSIS/Include/core_cm4.h **** 
1755:Drivers/CMSIS/Include/core_cm4.h **** 
1756:Drivers/CMSIS/Include/core_cm4.h **** /**
1757:Drivers/CMSIS/Include/core_cm4.h ****   \brief   Set Pending Interrupt
1758:Drivers/CMSIS/Include/core_cm4.h ****   \details Sets the pending bit of a device specific interrupt in the NVIC pending register.
1759:Drivers/CMSIS/Include/core_cm4.h ****   \param [in]      IRQn  Device specific interrupt number.
1760:Drivers/CMSIS/Include/core_cm4.h ****   \note    IRQn must not be negative.
ARM GAS  C:\Users\neko2\AppData\Local\Temp\ccWG4MHW.s 			page 62


1761:Drivers/CMSIS/Include/core_cm4.h ****  */
1762:Drivers/CMSIS/Include/core_cm4.h **** __STATIC_INLINE void __NVIC_SetPendingIRQ(IRQn_Type IRQn)
1763:Drivers/CMSIS/Include/core_cm4.h **** {
1764:Drivers/CMSIS/Include/core_cm4.h ****   if ((int32_t)(IRQn) >= 0)
1765:Drivers/CMSIS/Include/core_cm4.h ****   {
1766:Drivers/CMSIS/Include/core_cm4.h ****     NVIC->ISPR[(((uint32_t)IRQn) >> 5UL)] = (uint32_t)(1UL << (((uint32_t)IRQn) & 0x1FUL));
1767:Drivers/CMSIS/Include/core_cm4.h ****   }
1768:Drivers/CMSIS/Include/core_cm4.h **** }
1769:Drivers/CMSIS/Include/core_cm4.h **** 
1770:Drivers/CMSIS/Include/core_cm4.h **** 
1771:Drivers/CMSIS/Include/core_cm4.h **** /**
1772:Drivers/CMSIS/Include/core_cm4.h ****   \brief   Clear Pending Interrupt
1773:Drivers/CMSIS/Include/core_cm4.h ****   \details Clears the pending bit of a device specific interrupt in the NVIC pending register.
1774:Drivers/CMSIS/Include/core_cm4.h ****   \param [in]      IRQn  Device specific interrupt number.
1775:Drivers/CMSIS/Include/core_cm4.h ****   \note    IRQn must not be negative.
1776:Drivers/CMSIS/Include/core_cm4.h ****  */
1777:Drivers/CMSIS/Include/core_cm4.h **** __STATIC_INLINE void __NVIC_ClearPendingIRQ(IRQn_Type IRQn)
1778:Drivers/CMSIS/Include/core_cm4.h **** {
1779:Drivers/CMSIS/Include/core_cm4.h ****   if ((int32_t)(IRQn) >= 0)
1780:Drivers/CMSIS/Include/core_cm4.h ****   {
1781:Drivers/CMSIS/Include/core_cm4.h ****     NVIC->ICPR[(((uint32_t)IRQn) >> 5UL)] = (uint32_t)(1UL << (((uint32_t)IRQn) & 0x1FUL));
1782:Drivers/CMSIS/Include/core_cm4.h ****   }
1783:Drivers/CMSIS/Include/core_cm4.h **** }
1784:Drivers/CMSIS/Include/core_cm4.h **** 
1785:Drivers/CMSIS/Include/core_cm4.h **** 
1786:Drivers/CMSIS/Include/core_cm4.h **** /**
1787:Drivers/CMSIS/Include/core_cm4.h ****   \brief   Get Active Interrupt
1788:Drivers/CMSIS/Include/core_cm4.h ****   \details Reads the active register in the NVIC and returns the active bit for the device specific
1789:Drivers/CMSIS/Include/core_cm4.h ****   \param [in]      IRQn  Device specific interrupt number.
1790:Drivers/CMSIS/Include/core_cm4.h ****   \return             0  Interrupt status is not active.
1791:Drivers/CMSIS/Include/core_cm4.h ****   \return             1  Interrupt status is active.
1792:Drivers/CMSIS/Include/core_cm4.h ****   \note    IRQn must not be negative.
1793:Drivers/CMSIS/Include/core_cm4.h ****  */
1794:Drivers/CMSIS/Include/core_cm4.h **** __STATIC_INLINE uint32_t __NVIC_GetActive(IRQn_Type IRQn)
1795:Drivers/CMSIS/Include/core_cm4.h **** {
1796:Drivers/CMSIS/Include/core_cm4.h ****   if ((int32_t)(IRQn) >= 0)
1797:Drivers/CMSIS/Include/core_cm4.h ****   {
1798:Drivers/CMSIS/Include/core_cm4.h ****     return((uint32_t)(((NVIC->IABR[(((uint32_t)IRQn) >> 5UL)] & (1UL << (((uint32_t)IRQn) & 0x1FUL)
1799:Drivers/CMSIS/Include/core_cm4.h ****   }
1800:Drivers/CMSIS/Include/core_cm4.h ****   else
1801:Drivers/CMSIS/Include/core_cm4.h ****   {
1802:Drivers/CMSIS/Include/core_cm4.h ****     return(0U);
1803:Drivers/CMSIS/Include/core_cm4.h ****   }
1804:Drivers/CMSIS/Include/core_cm4.h **** }
1805:Drivers/CMSIS/Include/core_cm4.h **** 
1806:Drivers/CMSIS/Include/core_cm4.h **** 
1807:Drivers/CMSIS/Include/core_cm4.h **** /**
1808:Drivers/CMSIS/Include/core_cm4.h ****   \brief   Set Interrupt Priority
1809:Drivers/CMSIS/Include/core_cm4.h ****   \details Sets the priority of a device specific interrupt or a processor exception.
1810:Drivers/CMSIS/Include/core_cm4.h ****            The interrupt number can be positive to specify a device specific interrupt,
1811:Drivers/CMSIS/Include/core_cm4.h ****            or negative to specify a processor exception.
1812:Drivers/CMSIS/Include/core_cm4.h ****   \param [in]      IRQn  Interrupt number.
