ARM GAS  C:\Users\neko2\AppData\Local\Temp\ccI6SjKH.s 			page 1


   1              		.cpu cortex-m4
   2              		.arch armv7e-m
   3              		.fpu fpv4-sp-d16
   4              		.eabi_attribute 27, 1
   5              		.eabi_attribute 28, 1
   6              		.eabi_attribute 20, 1
   7              		.eabi_attribute 21, 1
   8              		.eabi_attribute 23, 3
   9              		.eabi_attribute 24, 1
  10              		.eabi_attribute 25, 1
  11              		.eabi_attribute 26, 1
  12              		.eabi_attribute 30, 1
  13              		.eabi_attribute 34, 1
  14              		.eabi_attribute 18, 4
  15              		.file	"tim.c"
  16              		.text
  17              	.Ltext0:
  18              		.cfi_sections	.debug_frame
  19              		.section	.text.MX_TIM6_Init,"ax",%progbits
  20              		.align	1
  21              		.global	MX_TIM6_Init
  22              		.syntax unified
  23              		.thumb
  24              		.thumb_func
  26              	MX_TIM6_Init:
  27              	.LFB218:
  28              		.file 1 "Core/Src/tim.c"
   1:Core/Src/tim.c **** /* USER CODE BEGIN Header */
   2:Core/Src/tim.c **** /**
   3:Core/Src/tim.c ****   ******************************************************************************
   4:Core/Src/tim.c ****   * @file    tim.c
   5:Core/Src/tim.c ****   * @brief   This file provides code for the configuration
   6:Core/Src/tim.c ****   *          of the TIM instances.
   7:Core/Src/tim.c ****   ******************************************************************************
   8:Core/Src/tim.c ****   * @attention
   9:Core/Src/tim.c ****   *
  10:Core/Src/tim.c ****   * Copyright (c) 2022 STMicroelectronics.
  11:Core/Src/tim.c ****   * All rights reserved.
  12:Core/Src/tim.c ****   *
  13:Core/Src/tim.c ****   * This software is licensed under terms that can be found in the LICENSE file
  14:Core/Src/tim.c ****   * in the root directory of this software component.
  15:Core/Src/tim.c ****   * If no LICENSE file comes with this software, it is provided AS-IS.
  16:Core/Src/tim.c ****   *
  17:Core/Src/tim.c ****   ******************************************************************************
  18:Core/Src/tim.c ****   */
  19:Core/Src/tim.c **** /* USER CODE END Header */
  20:Core/Src/tim.c **** /* Includes ------------------------------------------------------------------*/
  21:Core/Src/tim.c **** #include "tim.h"
  22:Core/Src/tim.c **** 
  23:Core/Src/tim.c **** /* USER CODE BEGIN 0 */
  24:Core/Src/tim.c **** 
  25:Core/Src/tim.c **** /* USER CODE END 0 */
  26:Core/Src/tim.c **** 
  27:Core/Src/tim.c **** TIM_HandleTypeDef htim1;
  28:Core/Src/tim.c **** TIM_HandleTypeDef htim2;
  29:Core/Src/tim.c **** TIM_HandleTypeDef htim6;
  30:Core/Src/tim.c **** 
ARM GAS  C:\Users\neko2\AppData\Local\Temp\ccI6SjKH.s 			page 2


  31:Core/Src/tim.c **** /* TIM1 init function */
  32:Core/Src/tim.c **** void MX_TIM1_Init(void)
  33:Core/Src/tim.c **** {
  34:Core/Src/tim.c **** 
  35:Core/Src/tim.c ****   /* USER CODE BEGIN TIM1_Init 0 */
  36:Core/Src/tim.c **** 
  37:Core/Src/tim.c ****   /* USER CODE END TIM1_Init 0 */
  38:Core/Src/tim.c **** 
  39:Core/Src/tim.c ****   TIM_MasterConfigTypeDef sMasterConfig = {0};
  40:Core/Src/tim.c ****   TIM_OC_InitTypeDef sConfigOC = {0};
  41:Core/Src/tim.c ****   TIM_BreakDeadTimeConfigTypeDef sBreakDeadTimeConfig = {0};
  42:Core/Src/tim.c **** 
  43:Core/Src/tim.c ****   /* USER CODE BEGIN TIM1_Init 1 */
  44:Core/Src/tim.c **** 
  45:Core/Src/tim.c ****   /* USER CODE END TIM1_Init 1 */
  46:Core/Src/tim.c ****   htim1.Instance = TIM1;
  47:Core/Src/tim.c ****   htim1.Init.Prescaler = 500-1;
  48:Core/Src/tim.c ****   htim1.Init.CounterMode = TIM_COUNTERMODE_UP;
  49:Core/Src/tim.c ****   htim1.Init.Period = 2000-1;
  50:Core/Src/tim.c ****   htim1.Init.ClockDivision = TIM_CLOCKDIVISION_DIV1;
  51:Core/Src/tim.c ****   htim1.Init.RepetitionCounter = 0;
  52:Core/Src/tim.c ****   htim1.Init.AutoReloadPreload = TIM_AUTORELOAD_PRELOAD_DISABLE;
  53:Core/Src/tim.c ****   if (HAL_TIM_PWM_Init(&htim1) != HAL_OK)
  54:Core/Src/tim.c ****   {
  55:Core/Src/tim.c ****     Error_Handler();
  56:Core/Src/tim.c ****   }
  57:Core/Src/tim.c ****   sMasterConfig.MasterOutputTrigger = TIM_TRGO_RESET;
  58:Core/Src/tim.c ****   sMasterConfig.MasterSlaveMode = TIM_MASTERSLAVEMODE_DISABLE;
  59:Core/Src/tim.c ****   if (HAL_TIMEx_MasterConfigSynchronization(&htim1, &sMasterConfig) != HAL_OK)
  60:Core/Src/tim.c ****   {
  61:Core/Src/tim.c ****     Error_Handler();
  62:Core/Src/tim.c ****   }
  63:Core/Src/tim.c ****   sConfigOC.OCMode = TIM_OCMODE_PWM1;
  64:Core/Src/tim.c ****   sConfigOC.Pulse = 0;
  65:Core/Src/tim.c ****   sConfigOC.OCPolarity = TIM_OCPOLARITY_HIGH;
  66:Core/Src/tim.c ****   sConfigOC.OCNPolarity = TIM_OCNPOLARITY_HIGH;
  67:Core/Src/tim.c ****   sConfigOC.OCFastMode = TIM_OCFAST_DISABLE;
  68:Core/Src/tim.c ****   sConfigOC.OCIdleState = TIM_OCIDLESTATE_RESET;
  69:Core/Src/tim.c ****   sConfigOC.OCNIdleState = TIM_OCNIDLESTATE_RESET;
  70:Core/Src/tim.c ****   if (HAL_TIM_PWM_ConfigChannel(&htim1, &sConfigOC, TIM_CHANNEL_1) != HAL_OK)
  71:Core/Src/tim.c ****   {
  72:Core/Src/tim.c ****     Error_Handler();
  73:Core/Src/tim.c ****   }
  74:Core/Src/tim.c ****   if (HAL_TIM_PWM_ConfigChannel(&htim1, &sConfigOC, TIM_CHANNEL_2) != HAL_OK)
  75:Core/Src/tim.c ****   {
  76:Core/Src/tim.c ****     Error_Handler();
  77:Core/Src/tim.c ****   }
  78:Core/Src/tim.c ****   if (HAL_TIM_PWM_ConfigChannel(&htim1, &sConfigOC, TIM_CHANNEL_3) != HAL_OK)
  79:Core/Src/tim.c ****   {
  80:Core/Src/tim.c ****     Error_Handler();
  81:Core/Src/tim.c ****   }
  82:Core/Src/tim.c ****   sBreakDeadTimeConfig.OffStateRunMode = TIM_OSSR_DISABLE;
  83:Core/Src/tim.c ****   sBreakDeadTimeConfig.OffStateIDLEMode = TIM_OSSI_DISABLE;
  84:Core/Src/tim.c ****   sBreakDeadTimeConfig.LockLevel = TIM_LOCKLEVEL_OFF;
  85:Core/Src/tim.c ****   sBreakDeadTimeConfig.DeadTime = 0;
  86:Core/Src/tim.c ****   sBreakDeadTimeConfig.BreakState = TIM_BREAK_DISABLE;
  87:Core/Src/tim.c ****   sBreakDeadTimeConfig.BreakPolarity = TIM_BREAKPOLARITY_HIGH;
ARM GAS  C:\Users\neko2\AppData\Local\Temp\ccI6SjKH.s 			page 3


  88:Core/Src/tim.c ****   sBreakDeadTimeConfig.AutomaticOutput = TIM_AUTOMATICOUTPUT_DISABLE;
  89:Core/Src/tim.c ****   if (HAL_TIMEx_ConfigBreakDeadTime(&htim1, &sBreakDeadTimeConfig) != HAL_OK)
  90:Core/Src/tim.c ****   {
  91:Core/Src/tim.c ****     Error_Handler();
  92:Core/Src/tim.c ****   }
  93:Core/Src/tim.c ****   /* USER CODE BEGIN TIM1_Init 2 */
  94:Core/Src/tim.c **** 
  95:Core/Src/tim.c ****   /* USER CODE END TIM1_Init 2 */
  96:Core/Src/tim.c ****   HAL_TIM_MspPostInit(&htim1);
  97:Core/Src/tim.c **** 
  98:Core/Src/tim.c **** }
  99:Core/Src/tim.c **** /* TIM2 init function */
 100:Core/Src/tim.c **** void MX_TIM2_Init(void)
 101:Core/Src/tim.c **** {
 102:Core/Src/tim.c **** 
 103:Core/Src/tim.c ****   /* USER CODE BEGIN TIM2_Init 0 */
 104:Core/Src/tim.c **** 
 105:Core/Src/tim.c ****   /* USER CODE END TIM2_Init 0 */
 106:Core/Src/tim.c **** 
 107:Core/Src/tim.c ****   TIM_MasterConfigTypeDef sMasterConfig = {0};
 108:Core/Src/tim.c ****   TIM_OC_InitTypeDef sConfigOC = {0};
 109:Core/Src/tim.c **** 
 110:Core/Src/tim.c ****   /* USER CODE BEGIN TIM2_Init 1 */
 111:Core/Src/tim.c **** 
 112:Core/Src/tim.c ****   /* USER CODE END TIM2_Init 1 */
 113:Core/Src/tim.c ****   htim2.Instance = TIM2;
 114:Core/Src/tim.c ****   htim2.Init.Prescaler = 500-1;
 115:Core/Src/tim.c ****   htim2.Init.CounterMode = TIM_COUNTERMODE_UP;
 116:Core/Src/tim.c ****   htim2.Init.Period = 2000-1;
 117:Core/Src/tim.c ****   htim2.Init.ClockDivision = TIM_CLOCKDIVISION_DIV1;
 118:Core/Src/tim.c ****   htim2.Init.AutoReloadPreload = TIM_AUTORELOAD_PRELOAD_DISABLE;
 119:Core/Src/tim.c ****   if (HAL_TIM_PWM_Init(&htim2) != HAL_OK)
 120:Core/Src/tim.c ****   {
 121:Core/Src/tim.c ****     Error_Handler();
 122:Core/Src/tim.c ****   }
 123:Core/Src/tim.c ****   sMasterConfig.MasterOutputTrigger = TIM_TRGO_RESET;
 124:Core/Src/tim.c ****   sMasterConfig.MasterSlaveMode = TIM_MASTERSLAVEMODE_DISABLE;
 125:Core/Src/tim.c ****   if (HAL_TIMEx_MasterConfigSynchronization(&htim2, &sMasterConfig) != HAL_OK)
 126:Core/Src/tim.c ****   {
 127:Core/Src/tim.c ****     Error_Handler();
 128:Core/Src/tim.c ****   }
 129:Core/Src/tim.c ****   sConfigOC.OCMode = TIM_OCMODE_PWM1;
 130:Core/Src/tim.c ****   sConfigOC.Pulse = 0;
 131:Core/Src/tim.c ****   sConfigOC.OCPolarity = TIM_OCPOLARITY_HIGH;
 132:Core/Src/tim.c ****   sConfigOC.OCFastMode = TIM_OCFAST_DISABLE;
 133:Core/Src/tim.c ****   if (HAL_TIM_PWM_ConfigChannel(&htim2, &sConfigOC, TIM_CHANNEL_1) != HAL_OK)
 134:Core/Src/tim.c ****   {
 135:Core/Src/tim.c ****     Error_Handler();
 136:Core/Src/tim.c ****   }
 137:Core/Src/tim.c ****   if (HAL_TIM_PWM_ConfigChannel(&htim2, &sConfigOC, TIM_CHANNEL_3) != HAL_OK)
 138:Core/Src/tim.c ****   {
 139:Core/Src/tim.c ****     Error_Handler();
 140:Core/Src/tim.c ****   }
 141:Core/Src/tim.c ****   /* USER CODE BEGIN TIM2_Init 2 */
 142:Core/Src/tim.c **** 
 143:Core/Src/tim.c ****   /* USER CODE END TIM2_Init 2 */
 144:Core/Src/tim.c ****   HAL_TIM_MspPostInit(&htim2);
ARM GAS  C:\Users\neko2\AppData\Local\Temp\ccI6SjKH.s 			page 4


 145:Core/Src/tim.c **** 
 146:Core/Src/tim.c **** }
 147:Core/Src/tim.c **** /* TIM6 init function */
 148:Core/Src/tim.c **** void MX_TIM6_Init(void)
 149:Core/Src/tim.c **** {
  29              		.loc 1 149 1 view -0
  30              		.cfi_startproc
  31              		@ args = 0, pretend = 0, frame = 8
  32              		@ frame_needed = 0, uses_anonymous_args = 0
  33 0000 00B5     		push	{lr}
  34              	.LCFI0:
  35              		.cfi_def_cfa_offset 4
  36              		.cfi_offset 14, -4
  37 0002 83B0     		sub	sp, sp, #12
  38              	.LCFI1:
  39              		.cfi_def_cfa_offset 16
 150:Core/Src/tim.c **** 
 151:Core/Src/tim.c ****   /* USER CODE BEGIN TIM6_Init 0 */
 152:Core/Src/tim.c **** 
 153:Core/Src/tim.c ****   /* USER CODE END TIM6_Init 0 */
 154:Core/Src/tim.c **** 
 155:Core/Src/tim.c ****   TIM_MasterConfigTypeDef sMasterConfig = {0};
  40              		.loc 1 155 3 view .LVU1
  41              		.loc 1 155 27 is_stmt 0 view .LVU2
  42 0004 0023     		movs	r3, #0
  43 0006 0093     		str	r3, [sp]
  44 0008 0193     		str	r3, [sp, #4]
 156:Core/Src/tim.c **** 
 157:Core/Src/tim.c ****   /* USER CODE BEGIN TIM6_Init 1 */
 158:Core/Src/tim.c **** 
 159:Core/Src/tim.c ****   /* USER CODE END TIM6_Init 1 */
 160:Core/Src/tim.c ****   htim6.Instance = TIM6;
  45              		.loc 1 160 3 is_stmt 1 view .LVU3
  46              		.loc 1 160 18 is_stmt 0 view .LVU4
  47 000a 0F48     		ldr	r0, .L7
  48 000c 0F4A     		ldr	r2, .L7+4
  49 000e 0260     		str	r2, [r0]
 161:Core/Src/tim.c ****   htim6.Init.Prescaler = 100-1;
  50              		.loc 1 161 3 is_stmt 1 view .LVU5
  51              		.loc 1 161 24 is_stmt 0 view .LVU6
  52 0010 6322     		movs	r2, #99
  53 0012 4260     		str	r2, [r0, #4]
 162:Core/Src/tim.c ****   htim6.Init.CounterMode = TIM_COUNTERMODE_UP;
  54              		.loc 1 162 3 is_stmt 1 view .LVU7
  55              		.loc 1 162 26 is_stmt 0 view .LVU8
  56 0014 8360     		str	r3, [r0, #8]
 163:Core/Src/tim.c ****   htim6.Init.Period = 1000-1;
  57              		.loc 1 163 3 is_stmt 1 view .LVU9
  58              		.loc 1 163 21 is_stmt 0 view .LVU10
  59 0016 40F2E732 		movw	r2, #999
  60 001a C260     		str	r2, [r0, #12]
 164:Core/Src/tim.c ****   htim6.Init.AutoReloadPreload = TIM_AUTORELOAD_PRELOAD_DISABLE;
  61              		.loc 1 164 3 is_stmt 1 view .LVU11
  62              		.loc 1 164 32 is_stmt 0 view .LVU12
  63 001c 8361     		str	r3, [r0, #24]
 165:Core/Src/tim.c ****   if (HAL_TIM_Base_Init(&htim6) != HAL_OK)
  64              		.loc 1 165 3 is_stmt 1 view .LVU13
ARM GAS  C:\Users\neko2\AppData\Local\Temp\ccI6SjKH.s 			page 5


  65              		.loc 1 165 7 is_stmt 0 view .LVU14
  66 001e FFF7FEFF 		bl	HAL_TIM_Base_Init
  67              	.LVL0:
  68              		.loc 1 165 6 view .LVU15
  69 0022 50B9     		cbnz	r0, .L5
  70              	.L2:
 166:Core/Src/tim.c ****   {
 167:Core/Src/tim.c ****     Error_Handler();
 168:Core/Src/tim.c ****   }
 169:Core/Src/tim.c ****   sMasterConfig.MasterOutputTrigger = TIM_TRGO_RESET;
  71              		.loc 1 169 3 is_stmt 1 view .LVU16
  72              		.loc 1 169 37 is_stmt 0 view .LVU17
  73 0024 0023     		movs	r3, #0
  74 0026 0093     		str	r3, [sp]
 170:Core/Src/tim.c ****   sMasterConfig.MasterSlaveMode = TIM_MASTERSLAVEMODE_DISABLE;
  75              		.loc 1 170 3 is_stmt 1 view .LVU18
  76              		.loc 1 170 33 is_stmt 0 view .LVU19
  77 0028 0193     		str	r3, [sp, #4]
 171:Core/Src/tim.c ****   if (HAL_TIMEx_MasterConfigSynchronization(&htim6, &sMasterConfig) != HAL_OK)
  78              		.loc 1 171 3 is_stmt 1 view .LVU20
  79              		.loc 1 171 7 is_stmt 0 view .LVU21
  80 002a 6946     		mov	r1, sp
  81 002c 0648     		ldr	r0, .L7
  82 002e FFF7FEFF 		bl	HAL_TIMEx_MasterConfigSynchronization
  83              	.LVL1:
  84              		.loc 1 171 6 view .LVU22
  85 0032 28B9     		cbnz	r0, .L6
  86              	.L1:
 172:Core/Src/tim.c ****   {
 173:Core/Src/tim.c ****     Error_Handler();
 174:Core/Src/tim.c ****   }
 175:Core/Src/tim.c ****   /* USER CODE BEGIN TIM6_Init 2 */
 176:Core/Src/tim.c **** 
 177:Core/Src/tim.c ****   /* USER CODE END TIM6_Init 2 */
 178:Core/Src/tim.c **** 
 179:Core/Src/tim.c **** }
  87              		.loc 1 179 1 view .LVU23
  88 0034 03B0     		add	sp, sp, #12
  89              	.LCFI2:
  90              		.cfi_remember_state
  91              		.cfi_def_cfa_offset 4
  92              		@ sp needed
  93 0036 5DF804FB 		ldr	pc, [sp], #4
  94              	.L5:
  95              	.LCFI3:
  96              		.cfi_restore_state
 167:Core/Src/tim.c ****   }
  97              		.loc 1 167 5 is_stmt 1 view .LVU24
  98 003a FFF7FEFF 		bl	Error_Handler
  99              	.LVL2:
 100 003e F1E7     		b	.L2
 101              	.L6:
 173:Core/Src/tim.c ****   }
 102              		.loc 1 173 5 view .LVU25
 103 0040 FFF7FEFF 		bl	Error_Handler
 104              	.LVL3:
 105              		.loc 1 179 1 is_stmt 0 view .LVU26
ARM GAS  C:\Users\neko2\AppData\Local\Temp\ccI6SjKH.s 			page 6


 106 0044 F6E7     		b	.L1
 107              	.L8:
 108 0046 00BF     		.align	2
 109              	.L7:
 110 0048 00000000 		.word	.LANCHOR0
 111 004c 00100040 		.word	1073745920
 112              		.cfi_endproc
 113              	.LFE218:
 115              		.section	.text.HAL_TIM_PWM_MspInit,"ax",%progbits
 116              		.align	1
 117              		.global	HAL_TIM_PWM_MspInit
 118              		.syntax unified
 119              		.thumb
 120              		.thumb_func
 122              	HAL_TIM_PWM_MspInit:
 123              	.LVL4:
 124              	.LFB219:
 180:Core/Src/tim.c **** 
 181:Core/Src/tim.c **** void HAL_TIM_PWM_MspInit(TIM_HandleTypeDef* tim_pwmHandle)
 182:Core/Src/tim.c **** {
 125              		.loc 1 182 1 is_stmt 1 view -0
 126              		.cfi_startproc
 127              		@ args = 0, pretend = 0, frame = 8
 128              		@ frame_needed = 0, uses_anonymous_args = 0
 129              		@ link register save eliminated.
 130              		.loc 1 182 1 is_stmt 0 view .LVU28
 131 0000 82B0     		sub	sp, sp, #8
 132              	.LCFI4:
 133              		.cfi_def_cfa_offset 8
 183:Core/Src/tim.c **** 
 184:Core/Src/tim.c ****   if(tim_pwmHandle->Instance==TIM1)
 134              		.loc 1 184 3 is_stmt 1 view .LVU29
 135              		.loc 1 184 19 is_stmt 0 view .LVU30
 136 0002 0368     		ldr	r3, [r0]
 137              		.loc 1 184 5 view .LVU31
 138 0004 104A     		ldr	r2, .L15
 139 0006 9342     		cmp	r3, r2
 140 0008 04D0     		beq	.L13
 185:Core/Src/tim.c ****   {
 186:Core/Src/tim.c ****   /* USER CODE BEGIN TIM1_MspInit 0 */
 187:Core/Src/tim.c **** 
 188:Core/Src/tim.c ****   /* USER CODE END TIM1_MspInit 0 */
 189:Core/Src/tim.c ****     /* TIM1 clock enable */
 190:Core/Src/tim.c ****     __HAL_RCC_TIM1_CLK_ENABLE();
 191:Core/Src/tim.c ****   /* USER CODE BEGIN TIM1_MspInit 1 */
 192:Core/Src/tim.c **** 
 193:Core/Src/tim.c ****   /* USER CODE END TIM1_MspInit 1 */
 194:Core/Src/tim.c ****   }
 195:Core/Src/tim.c ****   else if(tim_pwmHandle->Instance==TIM2)
 141              		.loc 1 195 8 is_stmt 1 view .LVU32
 142              		.loc 1 195 10 is_stmt 0 view .LVU33
 143 000a B3F1804F 		cmp	r3, #1073741824
 144 000e 0ED0     		beq	.L14
 145              	.L9:
 196:Core/Src/tim.c ****   {
 197:Core/Src/tim.c ****   /* USER CODE BEGIN TIM2_MspInit 0 */
 198:Core/Src/tim.c **** 
ARM GAS  C:\Users\neko2\AppData\Local\Temp\ccI6SjKH.s 			page 7


 199:Core/Src/tim.c ****   /* USER CODE END TIM2_MspInit 0 */
 200:Core/Src/tim.c ****     /* TIM2 clock enable */
 201:Core/Src/tim.c ****     __HAL_RCC_TIM2_CLK_ENABLE();
 202:Core/Src/tim.c ****   /* USER CODE BEGIN TIM2_MspInit 1 */
 203:Core/Src/tim.c **** 
 204:Core/Src/tim.c ****   /* USER CODE END TIM2_MspInit 1 */
 205:Core/Src/tim.c ****   }
 206:Core/Src/tim.c **** }
 146              		.loc 1 206 1 view .LVU34
 147 0010 02B0     		add	sp, sp, #8
 148              	.LCFI5:
 149              		.cfi_remember_state
 150              		.cfi_def_cfa_offset 0
 151              		@ sp needed
 152 0012 7047     		bx	lr
 153              	.L13:
 154              	.LCFI6:
 155              		.cfi_restore_state
 190:Core/Src/tim.c ****   /* USER CODE BEGIN TIM1_MspInit 1 */
 156              		.loc 1 190 5 is_stmt 1 view .LVU35
 157              	.LBB2:
 190:Core/Src/tim.c ****   /* USER CODE BEGIN TIM1_MspInit 1 */
 158              		.loc 1 190 5 view .LVU36
 159 0014 0023     		movs	r3, #0
 160 0016 0093     		str	r3, [sp]
 190:Core/Src/tim.c ****   /* USER CODE BEGIN TIM1_MspInit 1 */
 161              		.loc 1 190 5 view .LVU37
 162 0018 0C4B     		ldr	r3, .L15+4
 163 001a 5A6C     		ldr	r2, [r3, #68]
 164 001c 42F00102 		orr	r2, r2, #1
 165 0020 5A64     		str	r2, [r3, #68]
 190:Core/Src/tim.c ****   /* USER CODE BEGIN TIM1_MspInit 1 */
 166              		.loc 1 190 5 view .LVU38
 167 0022 5B6C     		ldr	r3, [r3, #68]
 168 0024 03F00103 		and	r3, r3, #1
 169 0028 0093     		str	r3, [sp]
 190:Core/Src/tim.c ****   /* USER CODE BEGIN TIM1_MspInit 1 */
 170              		.loc 1 190 5 view .LVU39
 171 002a 009B     		ldr	r3, [sp]
 172              	.LBE2:
 190:Core/Src/tim.c ****   /* USER CODE BEGIN TIM1_MspInit 1 */
 173              		.loc 1 190 5 view .LVU40
 174 002c F0E7     		b	.L9
 175              	.L14:
 201:Core/Src/tim.c ****   /* USER CODE BEGIN TIM2_MspInit 1 */
 176              		.loc 1 201 5 view .LVU41
 177              	.LBB3:
 201:Core/Src/tim.c ****   /* USER CODE BEGIN TIM2_MspInit 1 */
 178              		.loc 1 201 5 view .LVU42
 179 002e 0023     		movs	r3, #0
 180 0030 0193     		str	r3, [sp, #4]
 201:Core/Src/tim.c ****   /* USER CODE BEGIN TIM2_MspInit 1 */
 181              		.loc 1 201 5 view .LVU43
 182 0032 064B     		ldr	r3, .L15+4
 183 0034 1A6C     		ldr	r2, [r3, #64]
 184 0036 42F00102 		orr	r2, r2, #1
 185 003a 1A64     		str	r2, [r3, #64]
ARM GAS  C:\Users\neko2\AppData\Local\Temp\ccI6SjKH.s 			page 8


 201:Core/Src/tim.c ****   /* USER CODE BEGIN TIM2_MspInit 1 */
 186              		.loc 1 201 5 view .LVU44
 187 003c 1B6C     		ldr	r3, [r3, #64]
 188 003e 03F00103 		and	r3, r3, #1
 189 0042 0193     		str	r3, [sp, #4]
 201:Core/Src/tim.c ****   /* USER CODE BEGIN TIM2_MspInit 1 */
 190              		.loc 1 201 5 view .LVU45
 191 0044 019B     		ldr	r3, [sp, #4]
 192              	.LBE3:
 201:Core/Src/tim.c ****   /* USER CODE BEGIN TIM2_MspInit 1 */
 193              		.loc 1 201 5 view .LVU46
 194              		.loc 1 206 1 is_stmt 0 view .LVU47
 195 0046 E3E7     		b	.L9
 196              	.L16:
 197              		.align	2
 198              	.L15:
 199 0048 00000140 		.word	1073807360
 200 004c 00380240 		.word	1073887232
 201              		.cfi_endproc
 202              	.LFE219:
 204              		.section	.text.HAL_TIM_Base_MspInit,"ax",%progbits
 205              		.align	1
 206              		.global	HAL_TIM_Base_MspInit
 207              		.syntax unified
 208              		.thumb
 209              		.thumb_func
 211              	HAL_TIM_Base_MspInit:
 212              	.LVL5:
 213              	.LFB220:
 207:Core/Src/tim.c **** 
 208:Core/Src/tim.c **** void HAL_TIM_Base_MspInit(TIM_HandleTypeDef* tim_baseHandle)
 209:Core/Src/tim.c **** {
 214              		.loc 1 209 1 is_stmt 1 view -0
 215              		.cfi_startproc
 216              		@ args = 0, pretend = 0, frame = 8
 217              		@ frame_needed = 0, uses_anonymous_args = 0
 210:Core/Src/tim.c **** 
 211:Core/Src/tim.c ****   if(tim_baseHandle->Instance==TIM6)
 218              		.loc 1 211 3 view .LVU49
 219              		.loc 1 211 20 is_stmt 0 view .LVU50
 220 0000 0268     		ldr	r2, [r0]
 221              		.loc 1 211 5 view .LVU51
 222 0002 0E4B     		ldr	r3, .L24
 223 0004 9A42     		cmp	r2, r3
 224 0006 00D0     		beq	.L23
 225 0008 7047     		bx	lr
 226              	.L23:
 209:Core/Src/tim.c **** 
 227              		.loc 1 209 1 view .LVU52
 228 000a 00B5     		push	{lr}
 229              	.LCFI7:
 230              		.cfi_def_cfa_offset 4
 231              		.cfi_offset 14, -4
 232 000c 83B0     		sub	sp, sp, #12
 233              	.LCFI8:
 234              		.cfi_def_cfa_offset 16
 212:Core/Src/tim.c ****   {
ARM GAS  C:\Users\neko2\AppData\Local\Temp\ccI6SjKH.s 			page 9


 213:Core/Src/tim.c ****   /* USER CODE BEGIN TIM6_MspInit 0 */
 214:Core/Src/tim.c **** 
 215:Core/Src/tim.c ****   /* USER CODE END TIM6_MspInit 0 */
 216:Core/Src/tim.c ****     /* TIM6 clock enable */
 217:Core/Src/tim.c ****     __HAL_RCC_TIM6_CLK_ENABLE();
 235              		.loc 1 217 5 is_stmt 1 view .LVU53
 236              	.LBB4:
 237              		.loc 1 217 5 view .LVU54
 238 000e 0021     		movs	r1, #0
 239 0010 0191     		str	r1, [sp, #4]
 240              		.loc 1 217 5 view .LVU55
 241 0012 03F50A33 		add	r3, r3, #141312
 242 0016 1A6C     		ldr	r2, [r3, #64]
 243 0018 42F01002 		orr	r2, r2, #16
 244 001c 1A64     		str	r2, [r3, #64]
 245              		.loc 1 217 5 view .LVU56
 246 001e 1B6C     		ldr	r3, [r3, #64]
 247 0020 03F01003 		and	r3, r3, #16
 248 0024 0193     		str	r3, [sp, #4]
 249              		.loc 1 217 5 view .LVU57
 250 0026 019B     		ldr	r3, [sp, #4]
 251              	.LBE4:
 252              		.loc 1 217 5 view .LVU58
 218:Core/Src/tim.c **** 
 219:Core/Src/tim.c ****     /* TIM6 interrupt Init */
 220:Core/Src/tim.c ****     HAL_NVIC_SetPriority(TIM6_IRQn, 0, 0);
 253              		.loc 1 220 5 view .LVU59
 254 0028 0A46     		mov	r2, r1
 255 002a 3620     		movs	r0, #54
 256              	.LVL6:
 257              		.loc 1 220 5 is_stmt 0 view .LVU60
 258 002c FFF7FEFF 		bl	HAL_NVIC_SetPriority
 259              	.LVL7:
 221:Core/Src/tim.c ****     HAL_NVIC_EnableIRQ(TIM6_IRQn);
 260              		.loc 1 221 5 is_stmt 1 view .LVU61
 261 0030 3620     		movs	r0, #54
 262 0032 FFF7FEFF 		bl	HAL_NVIC_EnableIRQ
 263              	.LVL8:
 222:Core/Src/tim.c ****   /* USER CODE BEGIN TIM6_MspInit 1 */
 223:Core/Src/tim.c **** 
 224:Core/Src/tim.c ****   /* USER CODE END TIM6_MspInit 1 */
 225:Core/Src/tim.c ****   }
 226:Core/Src/tim.c **** }
 264              		.loc 1 226 1 is_stmt 0 view .LVU62
 265 0036 03B0     		add	sp, sp, #12
 266              	.LCFI9:
 267              		.cfi_def_cfa_offset 4
 268              		@ sp needed
 269 0038 5DF804FB 		ldr	pc, [sp], #4
 270              	.L25:
 271              		.align	2
 272              	.L24:
 273 003c 00100040 		.word	1073745920
 274              		.cfi_endproc
 275              	.LFE220:
 277              		.section	.text.HAL_TIM_MspPostInit,"ax",%progbits
 278              		.align	1
ARM GAS  C:\Users\neko2\AppData\Local\Temp\ccI6SjKH.s 			page 10


 279              		.global	HAL_TIM_MspPostInit
 280              		.syntax unified
 281              		.thumb
 282              		.thumb_func
 284              	HAL_TIM_MspPostInit:
 285              	.LVL9:
 286              	.LFB221:
 227:Core/Src/tim.c **** void HAL_TIM_MspPostInit(TIM_HandleTypeDef* timHandle)
 228:Core/Src/tim.c **** {
 287              		.loc 1 228 1 is_stmt 1 view -0
 288              		.cfi_startproc
 289              		@ args = 0, pretend = 0, frame = 32
 290              		@ frame_needed = 0, uses_anonymous_args = 0
 291              		.loc 1 228 1 is_stmt 0 view .LVU64
 292 0000 70B5     		push	{r4, r5, r6, lr}
 293              	.LCFI10:
 294              		.cfi_def_cfa_offset 16
 295              		.cfi_offset 4, -16
 296              		.cfi_offset 5, -12
 297              		.cfi_offset 6, -8
 298              		.cfi_offset 14, -4
 299 0002 88B0     		sub	sp, sp, #32
 300              	.LCFI11:
 301              		.cfi_def_cfa_offset 48
 229:Core/Src/tim.c **** 
 230:Core/Src/tim.c ****   GPIO_InitTypeDef GPIO_InitStruct = {0};
 302              		.loc 1 230 3 is_stmt 1 view .LVU65
 303              		.loc 1 230 20 is_stmt 0 view .LVU66
 304 0004 0023     		movs	r3, #0
 305 0006 0393     		str	r3, [sp, #12]
 306 0008 0493     		str	r3, [sp, #16]
 307 000a 0593     		str	r3, [sp, #20]
 308 000c 0693     		str	r3, [sp, #24]
 309 000e 0793     		str	r3, [sp, #28]
 231:Core/Src/tim.c ****   if(timHandle->Instance==TIM1)
 310              		.loc 1 231 3 is_stmt 1 view .LVU67
 311              		.loc 1 231 15 is_stmt 0 view .LVU68
 312 0010 0368     		ldr	r3, [r0]
 313              		.loc 1 231 5 view .LVU69
 314 0012 274A     		ldr	r2, .L32
 315 0014 9342     		cmp	r3, r2
 316 0016 04D0     		beq	.L30
 232:Core/Src/tim.c ****   {
 233:Core/Src/tim.c ****   /* USER CODE BEGIN TIM1_MspPostInit 0 */
 234:Core/Src/tim.c **** 
 235:Core/Src/tim.c ****   /* USER CODE END TIM1_MspPostInit 0 */
 236:Core/Src/tim.c ****     __HAL_RCC_GPIOA_CLK_ENABLE();
 237:Core/Src/tim.c ****     /**TIM1 GPIO Configuration
 238:Core/Src/tim.c ****     PA8     ------> TIM1_CH1
 239:Core/Src/tim.c ****     PA9     ------> TIM1_CH2
 240:Core/Src/tim.c ****     PA10     ------> TIM1_CH3
 241:Core/Src/tim.c ****     */
 242:Core/Src/tim.c ****     GPIO_InitStruct.Pin = MOT_R_IN2_Pin|MOT_L_IN2_Pin|MOT_L_IN1_Pin;
 243:Core/Src/tim.c ****     GPIO_InitStruct.Mode = GPIO_MODE_AF_PP;
 244:Core/Src/tim.c ****     GPIO_InitStruct.Pull = GPIO_NOPULL;
 245:Core/Src/tim.c ****     GPIO_InitStruct.Speed = GPIO_SPEED_FREQ_LOW;
 246:Core/Src/tim.c ****     GPIO_InitStruct.Alternate = GPIO_AF1_TIM1;
ARM GAS  C:\Users\neko2\AppData\Local\Temp\ccI6SjKH.s 			page 11


 247:Core/Src/tim.c ****     HAL_GPIO_Init(GPIOA, &GPIO_InitStruct);
 248:Core/Src/tim.c **** 
 249:Core/Src/tim.c ****   /* USER CODE BEGIN TIM1_MspPostInit 1 */
 250:Core/Src/tim.c **** 
 251:Core/Src/tim.c ****   /* USER CODE END TIM1_MspPostInit 1 */
 252:Core/Src/tim.c ****   }
 253:Core/Src/tim.c ****   else if(timHandle->Instance==TIM2)
 317              		.loc 1 253 8 is_stmt 1 view .LVU70
 318              		.loc 1 253 10 is_stmt 0 view .LVU71
 319 0018 B3F1804F 		cmp	r3, #1073741824
 320 001c 19D0     		beq	.L31
 321              	.LVL10:
 322              	.L26:
 254:Core/Src/tim.c ****   {
 255:Core/Src/tim.c ****   /* USER CODE BEGIN TIM2_MspPostInit 0 */
 256:Core/Src/tim.c **** 
 257:Core/Src/tim.c ****   /* USER CODE END TIM2_MspPostInit 0 */
 258:Core/Src/tim.c **** 
 259:Core/Src/tim.c ****     __HAL_RCC_GPIOB_CLK_ENABLE();
 260:Core/Src/tim.c ****     __HAL_RCC_GPIOA_CLK_ENABLE();
 261:Core/Src/tim.c ****     /**TIM2 GPIO Configuration
 262:Core/Src/tim.c ****     PB10     ------> TIM2_CH3
 263:Core/Src/tim.c ****     PA15     ------> TIM2_CH1
 264:Core/Src/tim.c ****     */
 265:Core/Src/tim.c ****     GPIO_InitStruct.Pin = MOT_R_IN1_Pin;
 266:Core/Src/tim.c ****     GPIO_InitStruct.Mode = GPIO_MODE_AF_PP;
 267:Core/Src/tim.c ****     GPIO_InitStruct.Pull = GPIO_NOPULL;
 268:Core/Src/tim.c ****     GPIO_InitStruct.Speed = GPIO_SPEED_FREQ_LOW;
 269:Core/Src/tim.c ****     GPIO_InitStruct.Alternate = GPIO_AF1_TIM2;
 270:Core/Src/tim.c ****     HAL_GPIO_Init(MOT_R_IN1_GPIO_Port, &GPIO_InitStruct);
 271:Core/Src/tim.c **** 
 272:Core/Src/tim.c ****     GPIO_InitStruct.Pin = FAN_PWM_Pin;
 273:Core/Src/tim.c ****     GPIO_InitStruct.Mode = GPIO_MODE_AF_PP;
 274:Core/Src/tim.c ****     GPIO_InitStruct.Pull = GPIO_NOPULL;
 275:Core/Src/tim.c ****     GPIO_InitStruct.Speed = GPIO_SPEED_FREQ_LOW;
 276:Core/Src/tim.c ****     GPIO_InitStruct.Alternate = GPIO_AF1_TIM2;
 277:Core/Src/tim.c ****     HAL_GPIO_Init(FAN_PWM_GPIO_Port, &GPIO_InitStruct);
 278:Core/Src/tim.c **** 
 279:Core/Src/tim.c ****   /* USER CODE BEGIN TIM2_MspPostInit 1 */
 280:Core/Src/tim.c **** 
 281:Core/Src/tim.c ****   /* USER CODE END TIM2_MspPostInit 1 */
 282:Core/Src/tim.c ****   }
 283:Core/Src/tim.c **** 
 284:Core/Src/tim.c **** }
 323              		.loc 1 284 1 view .LVU72
 324 001e 08B0     		add	sp, sp, #32
 325              	.LCFI12:
 326              		.cfi_remember_state
 327              		.cfi_def_cfa_offset 16
 328              		@ sp needed
 329 0020 70BD     		pop	{r4, r5, r6, pc}
 330              	.LVL11:
 331              	.L30:
 332              	.LCFI13:
 333              		.cfi_restore_state
 236:Core/Src/tim.c ****     /**TIM1 GPIO Configuration
 334              		.loc 1 236 5 is_stmt 1 view .LVU73
ARM GAS  C:\Users\neko2\AppData\Local\Temp\ccI6SjKH.s 			page 12


 335              	.LBB5:
 236:Core/Src/tim.c ****     /**TIM1 GPIO Configuration
 336              		.loc 1 236 5 view .LVU74
 337 0022 0023     		movs	r3, #0
 338 0024 0093     		str	r3, [sp]
 236:Core/Src/tim.c ****     /**TIM1 GPIO Configuration
 339              		.loc 1 236 5 view .LVU75
 340 0026 234B     		ldr	r3, .L32+4
 341 0028 1A6B     		ldr	r2, [r3, #48]
 342 002a 42F00102 		orr	r2, r2, #1
 343 002e 1A63     		str	r2, [r3, #48]
 236:Core/Src/tim.c ****     /**TIM1 GPIO Configuration
 344              		.loc 1 236 5 view .LVU76
 345 0030 1B6B     		ldr	r3, [r3, #48]
 346 0032 03F00103 		and	r3, r3, #1
 347 0036 0093     		str	r3, [sp]
 236:Core/Src/tim.c ****     /**TIM1 GPIO Configuration
 348              		.loc 1 236 5 view .LVU77
 349 0038 009B     		ldr	r3, [sp]
 350              	.LBE5:
 236:Core/Src/tim.c ****     /**TIM1 GPIO Configuration
 351              		.loc 1 236 5 view .LVU78
 242:Core/Src/tim.c ****     GPIO_InitStruct.Mode = GPIO_MODE_AF_PP;
 352              		.loc 1 242 5 view .LVU79
 242:Core/Src/tim.c ****     GPIO_InitStruct.Mode = GPIO_MODE_AF_PP;
 353              		.loc 1 242 25 is_stmt 0 view .LVU80
 354 003a 4FF4E063 		mov	r3, #1792
 355 003e 0393     		str	r3, [sp, #12]
 243:Core/Src/tim.c ****     GPIO_InitStruct.Pull = GPIO_NOPULL;
 356              		.loc 1 243 5 is_stmt 1 view .LVU81
 243:Core/Src/tim.c ****     GPIO_InitStruct.Pull = GPIO_NOPULL;
 357              		.loc 1 243 26 is_stmt 0 view .LVU82
 358 0040 0223     		movs	r3, #2
 359 0042 0493     		str	r3, [sp, #16]
 244:Core/Src/tim.c ****     GPIO_InitStruct.Speed = GPIO_SPEED_FREQ_LOW;
 360              		.loc 1 244 5 is_stmt 1 view .LVU83
 245:Core/Src/tim.c ****     GPIO_InitStruct.Alternate = GPIO_AF1_TIM1;
 361              		.loc 1 245 5 view .LVU84
 246:Core/Src/tim.c ****     HAL_GPIO_Init(GPIOA, &GPIO_InitStruct);
 362              		.loc 1 246 5 view .LVU85
 246:Core/Src/tim.c ****     HAL_GPIO_Init(GPIOA, &GPIO_InitStruct);
 363              		.loc 1 246 31 is_stmt 0 view .LVU86
 364 0044 0123     		movs	r3, #1
 365 0046 0793     		str	r3, [sp, #28]
 247:Core/Src/tim.c **** 
 366              		.loc 1 247 5 is_stmt 1 view .LVU87
 367 0048 03A9     		add	r1, sp, #12
 368 004a 1B48     		ldr	r0, .L32+8
 369              	.LVL12:
 247:Core/Src/tim.c **** 
 370              		.loc 1 247 5 is_stmt 0 view .LVU88
 371 004c FFF7FEFF 		bl	HAL_GPIO_Init
 372              	.LVL13:
 373 0050 E5E7     		b	.L26
 374              	.LVL14:
 375              	.L31:
 259:Core/Src/tim.c ****     __HAL_RCC_GPIOA_CLK_ENABLE();
ARM GAS  C:\Users\neko2\AppData\Local\Temp\ccI6SjKH.s 			page 13


 376              		.loc 1 259 5 is_stmt 1 view .LVU89
 377              	.LBB6:
 259:Core/Src/tim.c ****     __HAL_RCC_GPIOA_CLK_ENABLE();
 378              		.loc 1 259 5 view .LVU90
 379 0052 0024     		movs	r4, #0
 380 0054 0194     		str	r4, [sp, #4]
 259:Core/Src/tim.c ****     __HAL_RCC_GPIOA_CLK_ENABLE();
 381              		.loc 1 259 5 view .LVU91
 382 0056 03F50E33 		add	r3, r3, #145408
 383 005a 1A6B     		ldr	r2, [r3, #48]
 384 005c 42F00202 		orr	r2, r2, #2
 385 0060 1A63     		str	r2, [r3, #48]
 259:Core/Src/tim.c ****     __HAL_RCC_GPIOA_CLK_ENABLE();
 386              		.loc 1 259 5 view .LVU92
 387 0062 1A6B     		ldr	r2, [r3, #48]
 388 0064 02F00202 		and	r2, r2, #2
 389 0068 0192     		str	r2, [sp, #4]
 259:Core/Src/tim.c ****     __HAL_RCC_GPIOA_CLK_ENABLE();
 390              		.loc 1 259 5 view .LVU93
 391 006a 019A     		ldr	r2, [sp, #4]
 392              	.LBE6:
 259:Core/Src/tim.c ****     __HAL_RCC_GPIOA_CLK_ENABLE();
 393              		.loc 1 259 5 view .LVU94
 260:Core/Src/tim.c ****     /**TIM2 GPIO Configuration
 394              		.loc 1 260 5 view .LVU95
 395              	.LBB7:
 260:Core/Src/tim.c ****     /**TIM2 GPIO Configuration
 396              		.loc 1 260 5 view .LVU96
 397 006c 0294     		str	r4, [sp, #8]
 260:Core/Src/tim.c ****     /**TIM2 GPIO Configuration
 398              		.loc 1 260 5 view .LVU97
 399 006e 1A6B     		ldr	r2, [r3, #48]
 400 0070 42F00102 		orr	r2, r2, #1
 401 0074 1A63     		str	r2, [r3, #48]
 260:Core/Src/tim.c ****     /**TIM2 GPIO Configuration
 402              		.loc 1 260 5 view .LVU98
 403 0076 1B6B     		ldr	r3, [r3, #48]
 404 0078 03F00103 		and	r3, r3, #1
 405 007c 0293     		str	r3, [sp, #8]
 260:Core/Src/tim.c ****     /**TIM2 GPIO Configuration
 406              		.loc 1 260 5 view .LVU99
 407 007e 029B     		ldr	r3, [sp, #8]
 408              	.LBE7:
 260:Core/Src/tim.c ****     /**TIM2 GPIO Configuration
 409              		.loc 1 260 5 view .LVU100
 265:Core/Src/tim.c ****     GPIO_InitStruct.Mode = GPIO_MODE_AF_PP;
 410              		.loc 1 265 5 view .LVU101
 265:Core/Src/tim.c ****     GPIO_InitStruct.Mode = GPIO_MODE_AF_PP;
 411              		.loc 1 265 25 is_stmt 0 view .LVU102
 412 0080 4FF48063 		mov	r3, #1024
 413 0084 0393     		str	r3, [sp, #12]
 266:Core/Src/tim.c ****     GPIO_InitStruct.Pull = GPIO_NOPULL;
 414              		.loc 1 266 5 is_stmt 1 view .LVU103
 266:Core/Src/tim.c ****     GPIO_InitStruct.Pull = GPIO_NOPULL;
 415              		.loc 1 266 26 is_stmt 0 view .LVU104
 416 0086 0226     		movs	r6, #2
 417 0088 0496     		str	r6, [sp, #16]
ARM GAS  C:\Users\neko2\AppData\Local\Temp\ccI6SjKH.s 			page 14


 267:Core/Src/tim.c ****     GPIO_InitStruct.Speed = GPIO_SPEED_FREQ_LOW;
 418              		.loc 1 267 5 is_stmt 1 view .LVU105
 268:Core/Src/tim.c ****     GPIO_InitStruct.Alternate = GPIO_AF1_TIM2;
 419              		.loc 1 268 5 view .LVU106
 269:Core/Src/tim.c ****     HAL_GPIO_Init(MOT_R_IN1_GPIO_Port, &GPIO_InitStruct);
 420              		.loc 1 269 5 view .LVU107
 269:Core/Src/tim.c ****     HAL_GPIO_Init(MOT_R_IN1_GPIO_Port, &GPIO_InitStruct);
 421              		.loc 1 269 31 is_stmt 0 view .LVU108
 422 008a 0125     		movs	r5, #1
 423 008c 0795     		str	r5, [sp, #28]
 270:Core/Src/tim.c **** 
 424              		.loc 1 270 5 is_stmt 1 view .LVU109
 425 008e 03A9     		add	r1, sp, #12
 426 0090 0A48     		ldr	r0, .L32+12
 427              	.LVL15:
 270:Core/Src/tim.c **** 
 428              		.loc 1 270 5 is_stmt 0 view .LVU110
 429 0092 FFF7FEFF 		bl	HAL_GPIO_Init
 430              	.LVL16:
 272:Core/Src/tim.c ****     GPIO_InitStruct.Mode = GPIO_MODE_AF_PP;
 431              		.loc 1 272 5 is_stmt 1 view .LVU111
 272:Core/Src/tim.c ****     GPIO_InitStruct.Mode = GPIO_MODE_AF_PP;
 432              		.loc 1 272 25 is_stmt 0 view .LVU112
 433 0096 4FF40043 		mov	r3, #32768
 434 009a 0393     		str	r3, [sp, #12]
 273:Core/Src/tim.c ****     GPIO_InitStruct.Pull = GPIO_NOPULL;
 435              		.loc 1 273 5 is_stmt 1 view .LVU113
 273:Core/Src/tim.c ****     GPIO_InitStruct.Pull = GPIO_NOPULL;
 436              		.loc 1 273 26 is_stmt 0 view .LVU114
 437 009c 0496     		str	r6, [sp, #16]
 274:Core/Src/tim.c ****     GPIO_InitStruct.Speed = GPIO_SPEED_FREQ_LOW;
 438              		.loc 1 274 5 is_stmt 1 view .LVU115
 274:Core/Src/tim.c ****     GPIO_InitStruct.Speed = GPIO_SPEED_FREQ_LOW;
 439              		.loc 1 274 26 is_stmt 0 view .LVU116
 440 009e 0594     		str	r4, [sp, #20]
 275:Core/Src/tim.c ****     GPIO_InitStruct.Alternate = GPIO_AF1_TIM2;
 441              		.loc 1 275 5 is_stmt 1 view .LVU117
 275:Core/Src/tim.c ****     GPIO_InitStruct.Alternate = GPIO_AF1_TIM2;
 442              		.loc 1 275 27 is_stmt 0 view .LVU118
 443 00a0 0694     		str	r4, [sp, #24]
 276:Core/Src/tim.c ****     HAL_GPIO_Init(FAN_PWM_GPIO_Port, &GPIO_InitStruct);
 444              		.loc 1 276 5 is_stmt 1 view .LVU119
 276:Core/Src/tim.c ****     HAL_GPIO_Init(FAN_PWM_GPIO_Port, &GPIO_InitStruct);
 445              		.loc 1 276 31 is_stmt 0 view .LVU120
 446 00a2 0795     		str	r5, [sp, #28]
 277:Core/Src/tim.c **** 
 447              		.loc 1 277 5 is_stmt 1 view .LVU121
 448 00a4 03A9     		add	r1, sp, #12
 449 00a6 0448     		ldr	r0, .L32+8
 450 00a8 FFF7FEFF 		bl	HAL_GPIO_Init
 451              	.LVL17:
 452              		.loc 1 284 1 is_stmt 0 view .LVU122
 453 00ac B7E7     		b	.L26
 454              	.L33:
 455 00ae 00BF     		.align	2
 456              	.L32:
 457 00b0 00000140 		.word	1073807360
ARM GAS  C:\Users\neko2\AppData\Local\Temp\ccI6SjKH.s 			page 15


 458 00b4 00380240 		.word	1073887232
 459 00b8 00000240 		.word	1073872896
 460 00bc 00040240 		.word	1073873920
 461              		.cfi_endproc
 462              	.LFE221:
 464              		.section	.text.MX_TIM1_Init,"ax",%progbits
 465              		.align	1
 466              		.global	MX_TIM1_Init
 467              		.syntax unified
 468              		.thumb
 469              		.thumb_func
 471              	MX_TIM1_Init:
 472              	.LFB216:
  33:Core/Src/tim.c **** 
 473              		.loc 1 33 1 is_stmt 1 view -0
 474              		.cfi_startproc
 475              		@ args = 0, pretend = 0, frame = 72
 476              		@ frame_needed = 0, uses_anonymous_args = 0
 477 0000 10B5     		push	{r4, lr}
 478              	.LCFI14:
 479              		.cfi_def_cfa_offset 8
 480              		.cfi_offset 4, -8
 481              		.cfi_offset 14, -4
 482 0002 92B0     		sub	sp, sp, #72
 483              	.LCFI15:
 484              		.cfi_def_cfa_offset 80
  39:Core/Src/tim.c ****   TIM_OC_InitTypeDef sConfigOC = {0};
 485              		.loc 1 39 3 view .LVU124
  39:Core/Src/tim.c ****   TIM_OC_InitTypeDef sConfigOC = {0};
 486              		.loc 1 39 27 is_stmt 0 view .LVU125
 487 0004 0024     		movs	r4, #0
 488 0006 1094     		str	r4, [sp, #64]
 489 0008 1194     		str	r4, [sp, #68]
  40:Core/Src/tim.c ****   TIM_BreakDeadTimeConfigTypeDef sBreakDeadTimeConfig = {0};
 490              		.loc 1 40 3 is_stmt 1 view .LVU126
  40:Core/Src/tim.c ****   TIM_BreakDeadTimeConfigTypeDef sBreakDeadTimeConfig = {0};
 491              		.loc 1 40 22 is_stmt 0 view .LVU127
 492 000a 0994     		str	r4, [sp, #36]
 493 000c 0A94     		str	r4, [sp, #40]
 494 000e 0B94     		str	r4, [sp, #44]
 495 0010 0C94     		str	r4, [sp, #48]
 496 0012 0D94     		str	r4, [sp, #52]
 497 0014 0E94     		str	r4, [sp, #56]
 498 0016 0F94     		str	r4, [sp, #60]
  41:Core/Src/tim.c **** 
 499              		.loc 1 41 3 is_stmt 1 view .LVU128
  41:Core/Src/tim.c **** 
 500              		.loc 1 41 34 is_stmt 0 view .LVU129
 501 0018 2022     		movs	r2, #32
 502 001a 2146     		mov	r1, r4
 503 001c 01A8     		add	r0, sp, #4
 504 001e FFF7FEFF 		bl	memset
 505              	.LVL18:
  46:Core/Src/tim.c ****   htim1.Init.Prescaler = 500-1;
 506              		.loc 1 46 3 is_stmt 1 view .LVU130
  46:Core/Src/tim.c ****   htim1.Init.Prescaler = 500-1;
 507              		.loc 1 46 18 is_stmt 0 view .LVU131
ARM GAS  C:\Users\neko2\AppData\Local\Temp\ccI6SjKH.s 			page 16


 508 0022 2D48     		ldr	r0, .L48
 509 0024 2D4B     		ldr	r3, .L48+4
 510 0026 0360     		str	r3, [r0]
  47:Core/Src/tim.c ****   htim1.Init.CounterMode = TIM_COUNTERMODE_UP;
 511              		.loc 1 47 3 is_stmt 1 view .LVU132
  47:Core/Src/tim.c ****   htim1.Init.CounterMode = TIM_COUNTERMODE_UP;
 512              		.loc 1 47 24 is_stmt 0 view .LVU133
 513 0028 40F2F313 		movw	r3, #499
 514 002c 4360     		str	r3, [r0, #4]
  48:Core/Src/tim.c ****   htim1.Init.Period = 2000-1;
 515              		.loc 1 48 3 is_stmt 1 view .LVU134
  48:Core/Src/tim.c ****   htim1.Init.Period = 2000-1;
 516              		.loc 1 48 26 is_stmt 0 view .LVU135
 517 002e 8460     		str	r4, [r0, #8]
  49:Core/Src/tim.c ****   htim1.Init.ClockDivision = TIM_CLOCKDIVISION_DIV1;
 518              		.loc 1 49 3 is_stmt 1 view .LVU136
  49:Core/Src/tim.c ****   htim1.Init.ClockDivision = TIM_CLOCKDIVISION_DIV1;
 519              		.loc 1 49 21 is_stmt 0 view .LVU137
 520 0030 40F2CF73 		movw	r3, #1999
 521 0034 C360     		str	r3, [r0, #12]
  50:Core/Src/tim.c ****   htim1.Init.RepetitionCounter = 0;
 522              		.loc 1 50 3 is_stmt 1 view .LVU138
  50:Core/Src/tim.c ****   htim1.Init.RepetitionCounter = 0;
 523              		.loc 1 50 28 is_stmt 0 view .LVU139
 524 0036 0461     		str	r4, [r0, #16]
  51:Core/Src/tim.c ****   htim1.Init.AutoReloadPreload = TIM_AUTORELOAD_PRELOAD_DISABLE;
 525              		.loc 1 51 3 is_stmt 1 view .LVU140
  51:Core/Src/tim.c ****   htim1.Init.AutoReloadPreload = TIM_AUTORELOAD_PRELOAD_DISABLE;
 526              		.loc 1 51 32 is_stmt 0 view .LVU141
 527 0038 4461     		str	r4, [r0, #20]
  52:Core/Src/tim.c ****   if (HAL_TIM_PWM_Init(&htim1) != HAL_OK)
 528              		.loc 1 52 3 is_stmt 1 view .LVU142
  52:Core/Src/tim.c ****   if (HAL_TIM_PWM_Init(&htim1) != HAL_OK)
 529              		.loc 1 52 32 is_stmt 0 view .LVU143
 530 003a 8461     		str	r4, [r0, #24]
  53:Core/Src/tim.c ****   {
 531              		.loc 1 53 3 is_stmt 1 view .LVU144
  53:Core/Src/tim.c ****   {
 532              		.loc 1 53 7 is_stmt 0 view .LVU145
 533 003c FFF7FEFF 		bl	HAL_TIM_PWM_Init
 534              	.LVL19:
  53:Core/Src/tim.c ****   {
 535              		.loc 1 53 6 view .LVU146
 536 0040 0028     		cmp	r0, #0
 537 0042 36D1     		bne	.L42
 538              	.L35:
  57:Core/Src/tim.c ****   sMasterConfig.MasterSlaveMode = TIM_MASTERSLAVEMODE_DISABLE;
 539              		.loc 1 57 3 is_stmt 1 view .LVU147
  57:Core/Src/tim.c ****   sMasterConfig.MasterSlaveMode = TIM_MASTERSLAVEMODE_DISABLE;
 540              		.loc 1 57 37 is_stmt 0 view .LVU148
 541 0044 0023     		movs	r3, #0
 542 0046 1093     		str	r3, [sp, #64]
  58:Core/Src/tim.c ****   if (HAL_TIMEx_MasterConfigSynchronization(&htim1, &sMasterConfig) != HAL_OK)
 543              		.loc 1 58 3 is_stmt 1 view .LVU149
  58:Core/Src/tim.c ****   if (HAL_TIMEx_MasterConfigSynchronization(&htim1, &sMasterConfig) != HAL_OK)
 544              		.loc 1 58 33 is_stmt 0 view .LVU150
 545 0048 1193     		str	r3, [sp, #68]
ARM GAS  C:\Users\neko2\AppData\Local\Temp\ccI6SjKH.s 			page 17


  59:Core/Src/tim.c ****   {
 546              		.loc 1 59 3 is_stmt 1 view .LVU151
  59:Core/Src/tim.c ****   {
 547              		.loc 1 59 7 is_stmt 0 view .LVU152
 548 004a 10A9     		add	r1, sp, #64
 549 004c 2248     		ldr	r0, .L48
 550 004e FFF7FEFF 		bl	HAL_TIMEx_MasterConfigSynchronization
 551              	.LVL20:
  59:Core/Src/tim.c ****   {
 552              		.loc 1 59 6 view .LVU153
 553 0052 0028     		cmp	r0, #0
 554 0054 30D1     		bne	.L43
 555              	.L36:
  63:Core/Src/tim.c ****   sConfigOC.Pulse = 0;
 556              		.loc 1 63 3 is_stmt 1 view .LVU154
  63:Core/Src/tim.c ****   sConfigOC.Pulse = 0;
 557              		.loc 1 63 20 is_stmt 0 view .LVU155
 558 0056 6023     		movs	r3, #96
 559 0058 0993     		str	r3, [sp, #36]
  64:Core/Src/tim.c ****   sConfigOC.OCPolarity = TIM_OCPOLARITY_HIGH;
 560              		.loc 1 64 3 is_stmt 1 view .LVU156
  64:Core/Src/tim.c ****   sConfigOC.OCPolarity = TIM_OCPOLARITY_HIGH;
 561              		.loc 1 64 19 is_stmt 0 view .LVU157
 562 005a 0022     		movs	r2, #0
 563 005c 0A92     		str	r2, [sp, #40]
  65:Core/Src/tim.c ****   sConfigOC.OCNPolarity = TIM_OCNPOLARITY_HIGH;
 564              		.loc 1 65 3 is_stmt 1 view .LVU158
  65:Core/Src/tim.c ****   sConfigOC.OCNPolarity = TIM_OCNPOLARITY_HIGH;
 565              		.loc 1 65 24 is_stmt 0 view .LVU159
 566 005e 0B92     		str	r2, [sp, #44]
  66:Core/Src/tim.c ****   sConfigOC.OCFastMode = TIM_OCFAST_DISABLE;
 567              		.loc 1 66 3 is_stmt 1 view .LVU160
  66:Core/Src/tim.c ****   sConfigOC.OCFastMode = TIM_OCFAST_DISABLE;
 568              		.loc 1 66 25 is_stmt 0 view .LVU161
 569 0060 0C92     		str	r2, [sp, #48]
  67:Core/Src/tim.c ****   sConfigOC.OCIdleState = TIM_OCIDLESTATE_RESET;
 570              		.loc 1 67 3 is_stmt 1 view .LVU162
  67:Core/Src/tim.c ****   sConfigOC.OCIdleState = TIM_OCIDLESTATE_RESET;
 571              		.loc 1 67 24 is_stmt 0 view .LVU163
 572 0062 0D92     		str	r2, [sp, #52]
  68:Core/Src/tim.c ****   sConfigOC.OCNIdleState = TIM_OCNIDLESTATE_RESET;
 573              		.loc 1 68 3 is_stmt 1 view .LVU164
  68:Core/Src/tim.c ****   sConfigOC.OCNIdleState = TIM_OCNIDLESTATE_RESET;
 574              		.loc 1 68 25 is_stmt 0 view .LVU165
 575 0064 0E92     		str	r2, [sp, #56]
  69:Core/Src/tim.c ****   if (HAL_TIM_PWM_ConfigChannel(&htim1, &sConfigOC, TIM_CHANNEL_1) != HAL_OK)
 576              		.loc 1 69 3 is_stmt 1 view .LVU166
  69:Core/Src/tim.c ****   if (HAL_TIM_PWM_ConfigChannel(&htim1, &sConfigOC, TIM_CHANNEL_1) != HAL_OK)
 577              		.loc 1 69 26 is_stmt 0 view .LVU167
 578 0066 0F92     		str	r2, [sp, #60]
  70:Core/Src/tim.c ****   {
 579              		.loc 1 70 3 is_stmt 1 view .LVU168
  70:Core/Src/tim.c ****   {
 580              		.loc 1 70 7 is_stmt 0 view .LVU169
 581 0068 09A9     		add	r1, sp, #36
 582 006a 1B48     		ldr	r0, .L48
 583 006c FFF7FEFF 		bl	HAL_TIM_PWM_ConfigChannel
ARM GAS  C:\Users\neko2\AppData\Local\Temp\ccI6SjKH.s 			page 18


 584              	.LVL21:
  70:Core/Src/tim.c ****   {
 585              		.loc 1 70 6 view .LVU170
 586 0070 28BB     		cbnz	r0, .L44
 587              	.L37:
  74:Core/Src/tim.c ****   {
 588              		.loc 1 74 3 is_stmt 1 view .LVU171
  74:Core/Src/tim.c ****   {
 589              		.loc 1 74 7 is_stmt 0 view .LVU172
 590 0072 0422     		movs	r2, #4
 591 0074 09A9     		add	r1, sp, #36
 592 0076 1848     		ldr	r0, .L48
 593 0078 FFF7FEFF 		bl	HAL_TIM_PWM_ConfigChannel
 594              	.LVL22:
  74:Core/Src/tim.c ****   {
 595              		.loc 1 74 6 view .LVU173
 596 007c 10BB     		cbnz	r0, .L45
 597              	.L38:
  78:Core/Src/tim.c ****   {
 598              		.loc 1 78 3 is_stmt 1 view .LVU174
  78:Core/Src/tim.c ****   {
 599              		.loc 1 78 7 is_stmt 0 view .LVU175
 600 007e 0822     		movs	r2, #8
 601 0080 09A9     		add	r1, sp, #36
 602 0082 1548     		ldr	r0, .L48
 603 0084 FFF7FEFF 		bl	HAL_TIM_PWM_ConfigChannel
 604              	.LVL23:
  78:Core/Src/tim.c ****   {
 605              		.loc 1 78 6 view .LVU176
 606 0088 F8B9     		cbnz	r0, .L46
 607              	.L39:
  82:Core/Src/tim.c ****   sBreakDeadTimeConfig.OffStateIDLEMode = TIM_OSSI_DISABLE;
 608              		.loc 1 82 3 is_stmt 1 view .LVU177
  82:Core/Src/tim.c ****   sBreakDeadTimeConfig.OffStateIDLEMode = TIM_OSSI_DISABLE;
 609              		.loc 1 82 40 is_stmt 0 view .LVU178
 610 008a 0023     		movs	r3, #0
 611 008c 0193     		str	r3, [sp, #4]
  83:Core/Src/tim.c ****   sBreakDeadTimeConfig.LockLevel = TIM_LOCKLEVEL_OFF;
 612              		.loc 1 83 3 is_stmt 1 view .LVU179
  83:Core/Src/tim.c ****   sBreakDeadTimeConfig.LockLevel = TIM_LOCKLEVEL_OFF;
 613              		.loc 1 83 41 is_stmt 0 view .LVU180
 614 008e 0293     		str	r3, [sp, #8]
  84:Core/Src/tim.c ****   sBreakDeadTimeConfig.DeadTime = 0;
 615              		.loc 1 84 3 is_stmt 1 view .LVU181
  84:Core/Src/tim.c ****   sBreakDeadTimeConfig.DeadTime = 0;
 616              		.loc 1 84 34 is_stmt 0 view .LVU182
 617 0090 0393     		str	r3, [sp, #12]
  85:Core/Src/tim.c ****   sBreakDeadTimeConfig.BreakState = TIM_BREAK_DISABLE;
 618              		.loc 1 85 3 is_stmt 1 view .LVU183
  85:Core/Src/tim.c ****   sBreakDeadTimeConfig.BreakState = TIM_BREAK_DISABLE;
 619              		.loc 1 85 33 is_stmt 0 view .LVU184
 620 0092 0493     		str	r3, [sp, #16]
  86:Core/Src/tim.c ****   sBreakDeadTimeConfig.BreakPolarity = TIM_BREAKPOLARITY_HIGH;
 621              		.loc 1 86 3 is_stmt 1 view .LVU185
  86:Core/Src/tim.c ****   sBreakDeadTimeConfig.BreakPolarity = TIM_BREAKPOLARITY_HIGH;
 622              		.loc 1 86 35 is_stmt 0 view .LVU186
 623 0094 0593     		str	r3, [sp, #20]
ARM GAS  C:\Users\neko2\AppData\Local\Temp\ccI6SjKH.s 			page 19


  87:Core/Src/tim.c ****   sBreakDeadTimeConfig.AutomaticOutput = TIM_AUTOMATICOUTPUT_DISABLE;
 624              		.loc 1 87 3 is_stmt 1 view .LVU187
  87:Core/Src/tim.c ****   sBreakDeadTimeConfig.AutomaticOutput = TIM_AUTOMATICOUTPUT_DISABLE;
 625              		.loc 1 87 38 is_stmt 0 view .LVU188
 626 0096 4FF40052 		mov	r2, #8192
 627 009a 0692     		str	r2, [sp, #24]
  88:Core/Src/tim.c ****   if (HAL_TIMEx_ConfigBreakDeadTime(&htim1, &sBreakDeadTimeConfig) != HAL_OK)
 628              		.loc 1 88 3 is_stmt 1 view .LVU189
  88:Core/Src/tim.c ****   if (HAL_TIMEx_ConfigBreakDeadTime(&htim1, &sBreakDeadTimeConfig) != HAL_OK)
 629              		.loc 1 88 40 is_stmt 0 view .LVU190
 630 009c 0893     		str	r3, [sp, #32]
  89:Core/Src/tim.c ****   {
 631              		.loc 1 89 3 is_stmt 1 view .LVU191
  89:Core/Src/tim.c ****   {
 632              		.loc 1 89 7 is_stmt 0 view .LVU192
 633 009e 01A9     		add	r1, sp, #4
 634 00a0 0D48     		ldr	r0, .L48
 635 00a2 FFF7FEFF 		bl	HAL_TIMEx_ConfigBreakDeadTime
 636              	.LVL24:
  89:Core/Src/tim.c ****   {
 637              		.loc 1 89 6 view .LVU193
 638 00a6 98B9     		cbnz	r0, .L47
 639              	.L40:
  96:Core/Src/tim.c **** 
 640              		.loc 1 96 3 is_stmt 1 view .LVU194
 641 00a8 0B48     		ldr	r0, .L48
 642 00aa FFF7FEFF 		bl	HAL_TIM_MspPostInit
 643              	.LVL25:
  98:Core/Src/tim.c **** /* TIM2 init function */
 644              		.loc 1 98 1 is_stmt 0 view .LVU195
 645 00ae 12B0     		add	sp, sp, #72
 646              	.LCFI16:
 647              		.cfi_remember_state
 648              		.cfi_def_cfa_offset 8
 649              		@ sp needed
 650 00b0 10BD     		pop	{r4, pc}
 651              	.L42:
 652              	.LCFI17:
 653              		.cfi_restore_state
  55:Core/Src/tim.c ****   }
 654              		.loc 1 55 5 is_stmt 1 view .LVU196
 655 00b2 FFF7FEFF 		bl	Error_Handler
 656              	.LVL26:
 657 00b6 C5E7     		b	.L35
 658              	.L43:
  61:Core/Src/tim.c ****   }
 659              		.loc 1 61 5 view .LVU197
 660 00b8 FFF7FEFF 		bl	Error_Handler
 661              	.LVL27:
 662 00bc CBE7     		b	.L36
 663              	.L44:
  72:Core/Src/tim.c ****   }
 664              		.loc 1 72 5 view .LVU198
 665 00be FFF7FEFF 		bl	Error_Handler
 666              	.LVL28:
 667 00c2 D6E7     		b	.L37
 668              	.L45:
ARM GAS  C:\Users\neko2\AppData\Local\Temp\ccI6SjKH.s 			page 20


  76:Core/Src/tim.c ****   }
 669              		.loc 1 76 5 view .LVU199
 670 00c4 FFF7FEFF 		bl	Error_Handler
 671              	.LVL29:
 672 00c8 D9E7     		b	.L38
 673              	.L46:
  80:Core/Src/tim.c ****   }
 674              		.loc 1 80 5 view .LVU200
 675 00ca FFF7FEFF 		bl	Error_Handler
 676              	.LVL30:
 677 00ce DCE7     		b	.L39
 678              	.L47:
  91:Core/Src/tim.c ****   }
 679              		.loc 1 91 5 view .LVU201
 680 00d0 FFF7FEFF 		bl	Error_Handler
 681              	.LVL31:
 682 00d4 E8E7     		b	.L40
 683              	.L49:
 684 00d6 00BF     		.align	2
 685              	.L48:
 686 00d8 00000000 		.word	.LANCHOR1
 687 00dc 00000140 		.word	1073807360
 688              		.cfi_endproc
 689              	.LFE216:
 691              		.section	.text.MX_TIM2_Init,"ax",%progbits
 692              		.align	1
 693              		.global	MX_TIM2_Init
 694              		.syntax unified
 695              		.thumb
 696              		.thumb_func
 698              	MX_TIM2_Init:
 699              	.LFB217:
 101:Core/Src/tim.c **** 
 700              		.loc 1 101 1 view -0
 701              		.cfi_startproc
 702              		@ args = 0, pretend = 0, frame = 40
 703              		@ frame_needed = 0, uses_anonymous_args = 0
 704 0000 00B5     		push	{lr}
 705              	.LCFI18:
 706              		.cfi_def_cfa_offset 4
 707              		.cfi_offset 14, -4
 708 0002 8BB0     		sub	sp, sp, #44
 709              	.LCFI19:
 710              		.cfi_def_cfa_offset 48
 107:Core/Src/tim.c ****   TIM_OC_InitTypeDef sConfigOC = {0};
 711              		.loc 1 107 3 view .LVU203
 107:Core/Src/tim.c ****   TIM_OC_InitTypeDef sConfigOC = {0};
 712              		.loc 1 107 27 is_stmt 0 view .LVU204
 713 0004 0023     		movs	r3, #0
 714 0006 0893     		str	r3, [sp, #32]
 715 0008 0993     		str	r3, [sp, #36]
 108:Core/Src/tim.c **** 
 716              		.loc 1 108 3 is_stmt 1 view .LVU205
 108:Core/Src/tim.c **** 
 717              		.loc 1 108 22 is_stmt 0 view .LVU206
 718 000a 0193     		str	r3, [sp, #4]
 719 000c 0293     		str	r3, [sp, #8]
ARM GAS  C:\Users\neko2\AppData\Local\Temp\ccI6SjKH.s 			page 21


 720 000e 0393     		str	r3, [sp, #12]
 721 0010 0493     		str	r3, [sp, #16]
 722 0012 0593     		str	r3, [sp, #20]
 723 0014 0693     		str	r3, [sp, #24]
 724 0016 0793     		str	r3, [sp, #28]
 113:Core/Src/tim.c ****   htim2.Init.Prescaler = 500-1;
 725              		.loc 1 113 3 is_stmt 1 view .LVU207
 113:Core/Src/tim.c ****   htim2.Init.Prescaler = 500-1;
 726              		.loc 1 113 18 is_stmt 0 view .LVU208
 727 0018 1D48     		ldr	r0, .L60
 728 001a 4FF08042 		mov	r2, #1073741824
 729 001e 0260     		str	r2, [r0]
 114:Core/Src/tim.c ****   htim2.Init.CounterMode = TIM_COUNTERMODE_UP;
 730              		.loc 1 114 3 is_stmt 1 view .LVU209
 114:Core/Src/tim.c ****   htim2.Init.CounterMode = TIM_COUNTERMODE_UP;
 731              		.loc 1 114 24 is_stmt 0 view .LVU210
 732 0020 40F2F312 		movw	r2, #499
 733 0024 4260     		str	r2, [r0, #4]
 115:Core/Src/tim.c ****   htim2.Init.Period = 2000-1;
 734              		.loc 1 115 3 is_stmt 1 view .LVU211
 115:Core/Src/tim.c ****   htim2.Init.Period = 2000-1;
 735              		.loc 1 115 26 is_stmt 0 view .LVU212
 736 0026 8360     		str	r3, [r0, #8]
 116:Core/Src/tim.c ****   htim2.Init.ClockDivision = TIM_CLOCKDIVISION_DIV1;
 737              		.loc 1 116 3 is_stmt 1 view .LVU213
 116:Core/Src/tim.c ****   htim2.Init.ClockDivision = TIM_CLOCKDIVISION_DIV1;
 738              		.loc 1 116 21 is_stmt 0 view .LVU214
 739 0028 40F2CF72 		movw	r2, #1999
 740 002c C260     		str	r2, [r0, #12]
 117:Core/Src/tim.c ****   htim2.Init.AutoReloadPreload = TIM_AUTORELOAD_PRELOAD_DISABLE;
 741              		.loc 1 117 3 is_stmt 1 view .LVU215
 117:Core/Src/tim.c ****   htim2.Init.AutoReloadPreload = TIM_AUTORELOAD_PRELOAD_DISABLE;
 742              		.loc 1 117 28 is_stmt 0 view .LVU216
 743 002e 0361     		str	r3, [r0, #16]
 118:Core/Src/tim.c ****   if (HAL_TIM_PWM_Init(&htim2) != HAL_OK)
 744              		.loc 1 118 3 is_stmt 1 view .LVU217
 118:Core/Src/tim.c ****   if (HAL_TIM_PWM_Init(&htim2) != HAL_OK)
 745              		.loc 1 118 32 is_stmt 0 view .LVU218
 746 0030 8361     		str	r3, [r0, #24]
 119:Core/Src/tim.c ****   {
 747              		.loc 1 119 3 is_stmt 1 view .LVU219
 119:Core/Src/tim.c ****   {
 748              		.loc 1 119 7 is_stmt 0 view .LVU220
 749 0032 FFF7FEFF 		bl	HAL_TIM_PWM_Init
 750              	.LVL32:
 119:Core/Src/tim.c ****   {
 751              		.loc 1 119 6 view .LVU221
 752 0036 F0B9     		cbnz	r0, .L56
 753              	.L51:
 123:Core/Src/tim.c ****   sMasterConfig.MasterSlaveMode = TIM_MASTERSLAVEMODE_DISABLE;
 754              		.loc 1 123 3 is_stmt 1 view .LVU222
 123:Core/Src/tim.c ****   sMasterConfig.MasterSlaveMode = TIM_MASTERSLAVEMODE_DISABLE;
 755              		.loc 1 123 37 is_stmt 0 view .LVU223
 756 0038 0023     		movs	r3, #0
 757 003a 0893     		str	r3, [sp, #32]
 124:Core/Src/tim.c ****   if (HAL_TIMEx_MasterConfigSynchronization(&htim2, &sMasterConfig) != HAL_OK)
 758              		.loc 1 124 3 is_stmt 1 view .LVU224
ARM GAS  C:\Users\neko2\AppData\Local\Temp\ccI6SjKH.s 			page 22


 124:Core/Src/tim.c ****   if (HAL_TIMEx_MasterConfigSynchronization(&htim2, &sMasterConfig) != HAL_OK)
 759              		.loc 1 124 33 is_stmt 0 view .LVU225
 760 003c 0993     		str	r3, [sp, #36]
 125:Core/Src/tim.c ****   {
 761              		.loc 1 125 3 is_stmt 1 view .LVU226
 125:Core/Src/tim.c ****   {
 762              		.loc 1 125 7 is_stmt 0 view .LVU227
 763 003e 08A9     		add	r1, sp, #32
 764 0040 1348     		ldr	r0, .L60
 765 0042 FFF7FEFF 		bl	HAL_TIMEx_MasterConfigSynchronization
 766              	.LVL33:
 125:Core/Src/tim.c ****   {
 767              		.loc 1 125 6 view .LVU228
 768 0046 C8B9     		cbnz	r0, .L57
 769              	.L52:
 129:Core/Src/tim.c ****   sConfigOC.Pulse = 0;
 770              		.loc 1 129 3 is_stmt 1 view .LVU229
 129:Core/Src/tim.c ****   sConfigOC.Pulse = 0;
 771              		.loc 1 129 20 is_stmt 0 view .LVU230
 772 0048 6023     		movs	r3, #96
 773 004a 0193     		str	r3, [sp, #4]
 130:Core/Src/tim.c ****   sConfigOC.OCPolarity = TIM_OCPOLARITY_HIGH;
 774              		.loc 1 130 3 is_stmt 1 view .LVU231
 130:Core/Src/tim.c ****   sConfigOC.OCPolarity = TIM_OCPOLARITY_HIGH;
 775              		.loc 1 130 19 is_stmt 0 view .LVU232
 776 004c 0022     		movs	r2, #0
 777 004e 0292     		str	r2, [sp, #8]
 131:Core/Src/tim.c ****   sConfigOC.OCFastMode = TIM_OCFAST_DISABLE;
 778              		.loc 1 131 3 is_stmt 1 view .LVU233
 131:Core/Src/tim.c ****   sConfigOC.OCFastMode = TIM_OCFAST_DISABLE;
 779              		.loc 1 131 24 is_stmt 0 view .LVU234
 780 0050 0392     		str	r2, [sp, #12]
 132:Core/Src/tim.c ****   if (HAL_TIM_PWM_ConfigChannel(&htim2, &sConfigOC, TIM_CHANNEL_1) != HAL_OK)
 781              		.loc 1 132 3 is_stmt 1 view .LVU235
 132:Core/Src/tim.c ****   if (HAL_TIM_PWM_ConfigChannel(&htim2, &sConfigOC, TIM_CHANNEL_1) != HAL_OK)
 782              		.loc 1 132 24 is_stmt 0 view .LVU236
 783 0052 0592     		str	r2, [sp, #20]
 133:Core/Src/tim.c ****   {
 784              		.loc 1 133 3 is_stmt 1 view .LVU237
 133:Core/Src/tim.c ****   {
 785              		.loc 1 133 7 is_stmt 0 view .LVU238
 786 0054 01A9     		add	r1, sp, #4
 787 0056 0E48     		ldr	r0, .L60
 788 0058 FFF7FEFF 		bl	HAL_TIM_PWM_ConfigChannel
 789              	.LVL34:
 133:Core/Src/tim.c ****   {
 790              		.loc 1 133 6 view .LVU239
 791 005c 88B9     		cbnz	r0, .L58
 792              	.L53:
 137:Core/Src/tim.c ****   {
 793              		.loc 1 137 3 is_stmt 1 view .LVU240
 137:Core/Src/tim.c ****   {
 794              		.loc 1 137 7 is_stmt 0 view .LVU241
 795 005e 0822     		movs	r2, #8
 796 0060 01A9     		add	r1, sp, #4
 797 0062 0B48     		ldr	r0, .L60
 798 0064 FFF7FEFF 		bl	HAL_TIM_PWM_ConfigChannel
ARM GAS  C:\Users\neko2\AppData\Local\Temp\ccI6SjKH.s 			page 23


 799              	.LVL35:
 137:Core/Src/tim.c ****   {
 800              		.loc 1 137 6 view .LVU242
 801 0068 70B9     		cbnz	r0, .L59
 802              	.L54:
 144:Core/Src/tim.c **** 
 803              		.loc 1 144 3 is_stmt 1 view .LVU243
 804 006a 0948     		ldr	r0, .L60
 805 006c FFF7FEFF 		bl	HAL_TIM_MspPostInit
 806              	.LVL36:
 146:Core/Src/tim.c **** /* TIM6 init function */
 807              		.loc 1 146 1 is_stmt 0 view .LVU244
 808 0070 0BB0     		add	sp, sp, #44
 809              	.LCFI20:
 810              		.cfi_remember_state
 811              		.cfi_def_cfa_offset 4
 812              		@ sp needed
 813 0072 5DF804FB 		ldr	pc, [sp], #4
 814              	.L56:
 815              	.LCFI21:
 816              		.cfi_restore_state
 121:Core/Src/tim.c ****   }
 817              		.loc 1 121 5 is_stmt 1 view .LVU245
 818 0076 FFF7FEFF 		bl	Error_Handler
 819              	.LVL37:
 820 007a DDE7     		b	.L51
 821              	.L57:
 127:Core/Src/tim.c ****   }
 822              		.loc 1 127 5 view .LVU246
 823 007c FFF7FEFF 		bl	Error_Handler
 824              	.LVL38:
 825 0080 E2E7     		b	.L52
 826              	.L58:
 135:Core/Src/tim.c ****   }
 827              		.loc 1 135 5 view .LVU247
 828 0082 FFF7FEFF 		bl	Error_Handler
 829              	.LVL39:
 830 0086 EAE7     		b	.L53
 831              	.L59:
 139:Core/Src/tim.c ****   }
 832              		.loc 1 139 5 view .LVU248
 833 0088 FFF7FEFF 		bl	Error_Handler
 834              	.LVL40:
 835 008c EDE7     		b	.L54
 836              	.L61:
 837 008e 00BF     		.align	2
 838              	.L60:
 839 0090 00000000 		.word	.LANCHOR2
 840              		.cfi_endproc
 841              	.LFE217:
 843              		.section	.text.HAL_TIM_PWM_MspDeInit,"ax",%progbits
 844              		.align	1
 845              		.global	HAL_TIM_PWM_MspDeInit
 846              		.syntax unified
 847              		.thumb
 848              		.thumb_func
 850              	HAL_TIM_PWM_MspDeInit:
ARM GAS  C:\Users\neko2\AppData\Local\Temp\ccI6SjKH.s 			page 24


 851              	.LVL41:
 852              	.LFB222:
 285:Core/Src/tim.c **** 
 286:Core/Src/tim.c **** void HAL_TIM_PWM_MspDeInit(TIM_HandleTypeDef* tim_pwmHandle)
 287:Core/Src/tim.c **** {
 853              		.loc 1 287 1 view -0
 854              		.cfi_startproc
 855              		@ args = 0, pretend = 0, frame = 0
 856              		@ frame_needed = 0, uses_anonymous_args = 0
 857              		@ link register save eliminated.
 288:Core/Src/tim.c **** 
 289:Core/Src/tim.c ****   if(tim_pwmHandle->Instance==TIM1)
 858              		.loc 1 289 3 view .LVU250
 859              		.loc 1 289 19 is_stmt 0 view .LVU251
 860 0000 0368     		ldr	r3, [r0]
 861              		.loc 1 289 5 view .LVU252
 862 0002 0A4A     		ldr	r2, .L67
 863 0004 9342     		cmp	r3, r2
 864 0006 03D0     		beq	.L65
 290:Core/Src/tim.c ****   {
 291:Core/Src/tim.c ****   /* USER CODE BEGIN TIM1_MspDeInit 0 */
 292:Core/Src/tim.c **** 
 293:Core/Src/tim.c ****   /* USER CODE END TIM1_MspDeInit 0 */
 294:Core/Src/tim.c ****     /* Peripheral clock disable */
 295:Core/Src/tim.c ****     __HAL_RCC_TIM1_CLK_DISABLE();
 296:Core/Src/tim.c ****   /* USER CODE BEGIN TIM1_MspDeInit 1 */
 297:Core/Src/tim.c **** 
 298:Core/Src/tim.c ****   /* USER CODE END TIM1_MspDeInit 1 */
 299:Core/Src/tim.c ****   }
 300:Core/Src/tim.c ****   else if(tim_pwmHandle->Instance==TIM2)
 865              		.loc 1 300 8 is_stmt 1 view .LVU253
 866              		.loc 1 300 10 is_stmt 0 view .LVU254
 867 0008 B3F1804F 		cmp	r3, #1073741824
 868 000c 07D0     		beq	.L66
 869              	.L62:
 301:Core/Src/tim.c ****   {
 302:Core/Src/tim.c ****   /* USER CODE BEGIN TIM2_MspDeInit 0 */
 303:Core/Src/tim.c **** 
 304:Core/Src/tim.c ****   /* USER CODE END TIM2_MspDeInit 0 */
 305:Core/Src/tim.c ****     /* Peripheral clock disable */
 306:Core/Src/tim.c ****     __HAL_RCC_TIM2_CLK_DISABLE();
 307:Core/Src/tim.c ****   /* USER CODE BEGIN TIM2_MspDeInit 1 */
 308:Core/Src/tim.c **** 
 309:Core/Src/tim.c ****   /* USER CODE END TIM2_MspDeInit 1 */
 310:Core/Src/tim.c ****   }
 311:Core/Src/tim.c **** }
 870              		.loc 1 311 1 view .LVU255
 871 000e 7047     		bx	lr
 872              	.L65:
 295:Core/Src/tim.c ****   /* USER CODE BEGIN TIM1_MspDeInit 1 */
 873              		.loc 1 295 5 is_stmt 1 view .LVU256
 874 0010 02F59C32 		add	r2, r2, #79872
 875 0014 536C     		ldr	r3, [r2, #68]
 876 0016 23F00103 		bic	r3, r3, #1
 877 001a 5364     		str	r3, [r2, #68]
 878 001c 7047     		bx	lr
 879              	.L66:
ARM GAS  C:\Users\neko2\AppData\Local\Temp\ccI6SjKH.s 			page 25


 306:Core/Src/tim.c ****   /* USER CODE BEGIN TIM2_MspDeInit 1 */
 880              		.loc 1 306 5 view .LVU257
 881 001e 044A     		ldr	r2, .L67+4
 882 0020 136C     		ldr	r3, [r2, #64]
 883 0022 23F00103 		bic	r3, r3, #1
 884 0026 1364     		str	r3, [r2, #64]
 885              		.loc 1 311 1 is_stmt 0 view .LVU258
 886 0028 F1E7     		b	.L62
 887              	.L68:
 888 002a 00BF     		.align	2
 889              	.L67:
 890 002c 00000140 		.word	1073807360
 891 0030 00380240 		.word	1073887232
 892              		.cfi_endproc
 893              	.LFE222:
 895              		.section	.text.HAL_TIM_Base_MspDeInit,"ax",%progbits
 896              		.align	1
 897              		.global	HAL_TIM_Base_MspDeInit
 898              		.syntax unified
 899              		.thumb
 900              		.thumb_func
 902              	HAL_TIM_Base_MspDeInit:
 903              	.LVL42:
 904              	.LFB223:
 312:Core/Src/tim.c **** 
 313:Core/Src/tim.c **** void HAL_TIM_Base_MspDeInit(TIM_HandleTypeDef* tim_baseHandle)
 314:Core/Src/tim.c **** {
 905              		.loc 1 314 1 is_stmt 1 view -0
 906              		.cfi_startproc
 907              		@ args = 0, pretend = 0, frame = 0
 908              		@ frame_needed = 0, uses_anonymous_args = 0
 909              		.loc 1 314 1 is_stmt 0 view .LVU260
 910 0000 08B5     		push	{r3, lr}
 911              	.LCFI22:
 912              		.cfi_def_cfa_offset 8
 913              		.cfi_offset 3, -8
 914              		.cfi_offset 14, -4
 315:Core/Src/tim.c **** 
 316:Core/Src/tim.c ****   if(tim_baseHandle->Instance==TIM6)
 915              		.loc 1 316 3 is_stmt 1 view .LVU261
 916              		.loc 1 316 20 is_stmt 0 view .LVU262
 917 0002 0268     		ldr	r2, [r0]
 918              		.loc 1 316 5 view .LVU263
 919 0004 064B     		ldr	r3, .L73
 920 0006 9A42     		cmp	r2, r3
 921 0008 00D0     		beq	.L72
 922              	.LVL43:
 923              	.L69:
 317:Core/Src/tim.c ****   {
 318:Core/Src/tim.c ****   /* USER CODE BEGIN TIM6_MspDeInit 0 */
 319:Core/Src/tim.c **** 
 320:Core/Src/tim.c ****   /* USER CODE END TIM6_MspDeInit 0 */
 321:Core/Src/tim.c ****     /* Peripheral clock disable */
 322:Core/Src/tim.c ****     __HAL_RCC_TIM6_CLK_DISABLE();
 323:Core/Src/tim.c **** 
 324:Core/Src/tim.c ****     /* TIM6 interrupt Deinit */
 325:Core/Src/tim.c ****     HAL_NVIC_DisableIRQ(TIM6_IRQn);
ARM GAS  C:\Users\neko2\AppData\Local\Temp\ccI6SjKH.s 			page 26


 326:Core/Src/tim.c ****   /* USER CODE BEGIN TIM6_MspDeInit 1 */
 327:Core/Src/tim.c **** 
 328:Core/Src/tim.c ****   /* USER CODE END TIM6_MspDeInit 1 */
 329:Core/Src/tim.c ****   }
 330:Core/Src/tim.c **** }
 924              		.loc 1 330 1 view .LVU264
 925 000a 08BD     		pop	{r3, pc}
 926              	.LVL44:
 927              	.L72:
 322:Core/Src/tim.c **** 
 928              		.loc 1 322 5 is_stmt 1 view .LVU265
 929 000c 054A     		ldr	r2, .L73+4
 930 000e 136C     		ldr	r3, [r2, #64]
 931 0010 23F01003 		bic	r3, r3, #16
 932 0014 1364     		str	r3, [r2, #64]
 325:Core/Src/tim.c ****   /* USER CODE BEGIN TIM6_MspDeInit 1 */
 933              		.loc 1 325 5 view .LVU266
 934 0016 3620     		movs	r0, #54
 935              	.LVL45:
 325:Core/Src/tim.c ****   /* USER CODE BEGIN TIM6_MspDeInit 1 */
 936              		.loc 1 325 5 is_stmt 0 view .LVU267
 937 0018 FFF7FEFF 		bl	HAL_NVIC_DisableIRQ
 938              	.LVL46:
 939              		.loc 1 330 1 view .LVU268
 940 001c F5E7     		b	.L69
 941              	.L74:
 942 001e 00BF     		.align	2
 943              	.L73:
 944 0020 00100040 		.word	1073745920
 945 0024 00380240 		.word	1073887232
 946              		.cfi_endproc
 947              	.LFE223:
 949              		.global	htim6
 950              		.global	htim2
 951              		.global	htim1
 952              		.section	.bss.htim1,"aw",%nobits
 953              		.align	2
 954              		.set	.LANCHOR1,. + 0
 957              	htim1:
 958 0000 00000000 		.space	72
 958      00000000 
 958      00000000 
 958      00000000 
 958      00000000 
 959              		.section	.bss.htim2,"aw",%nobits
 960              		.align	2
 961              		.set	.LANCHOR2,. + 0
 964              	htim2:
 965 0000 00000000 		.space	72
 965      00000000 
 965      00000000 
 965      00000000 
 965      00000000 
 966              		.section	.bss.htim6,"aw",%nobits
 967              		.align	2
 968              		.set	.LANCHOR0,. + 0
 971              	htim6:
ARM GAS  C:\Users\neko2\AppData\Local\Temp\ccI6SjKH.s 			page 27


 972 0000 00000000 		.space	72
 972      00000000 
 972      00000000 
 972      00000000 
 972      00000000 
 973              		.text
 974              	.Letext0:
 975              		.file 2 "c:\\tools\\gcc-arm-none-eabi-10.3-2021.10\\arm-none-eabi\\include\\machine\\_default_type
 976              		.file 3 "c:\\tools\\gcc-arm-none-eabi-10.3-2021.10\\arm-none-eabi\\include\\sys\\_stdint.h"
 977              		.file 4 "Drivers/CMSIS/Device/ST/STM32F4xx/Include/stm32f412cx.h"
 978              		.file 5 "Drivers/STM32F4xx_HAL_Driver/Inc/stm32f4xx_hal_def.h"
 979              		.file 6 "Drivers/STM32F4xx_HAL_Driver/Inc/stm32f4xx_hal_gpio.h"
 980              		.file 7 "Drivers/STM32F4xx_HAL_Driver/Inc/stm32f4xx_hal_dma.h"
 981              		.file 8 "Drivers/STM32F4xx_HAL_Driver/Inc/stm32f4xx_hal_tim.h"
 982              		.file 9 "Core/Inc/tim.h"
 983              		.file 10 "Drivers/STM32F4xx_HAL_Driver/Inc/stm32f4xx_hal_cortex.h"
 984              		.file 11 "Drivers/STM32F4xx_HAL_Driver/Inc/stm32f4xx_hal_tim_ex.h"
 985              		.file 12 "Core/Inc/main.h"
 986              		.file 13 "<built-in>"
ARM GAS  C:\Users\neko2\AppData\Local\Temp\ccI6SjKH.s 			page 28


DEFINED SYMBOLS
                            *ABS*:00000000 tim.c
C:\Users\neko2\AppData\Local\Temp\ccI6SjKH.s:20     .text.MX_TIM6_Init:00000000 $t
C:\Users\neko2\AppData\Local\Temp\ccI6SjKH.s:26     .text.MX_TIM6_Init:00000000 MX_TIM6_Init
C:\Users\neko2\AppData\Local\Temp\ccI6SjKH.s:110    .text.MX_TIM6_Init:00000048 $d
C:\Users\neko2\AppData\Local\Temp\ccI6SjKH.s:116    .text.HAL_TIM_PWM_MspInit:00000000 $t
C:\Users\neko2\AppData\Local\Temp\ccI6SjKH.s:122    .text.HAL_TIM_PWM_MspInit:00000000 HAL_TIM_PWM_MspInit
C:\Users\neko2\AppData\Local\Temp\ccI6SjKH.s:199    .text.HAL_TIM_PWM_MspInit:00000048 $d
C:\Users\neko2\AppData\Local\Temp\ccI6SjKH.s:205    .text.HAL_TIM_Base_MspInit:00000000 $t
C:\Users\neko2\AppData\Local\Temp\ccI6SjKH.s:211    .text.HAL_TIM_Base_MspInit:00000000 HAL_TIM_Base_MspInit
C:\Users\neko2\AppData\Local\Temp\ccI6SjKH.s:273    .text.HAL_TIM_Base_MspInit:0000003c $d
C:\Users\neko2\AppData\Local\Temp\ccI6SjKH.s:278    .text.HAL_TIM_MspPostInit:00000000 $t
C:\Users\neko2\AppData\Local\Temp\ccI6SjKH.s:284    .text.HAL_TIM_MspPostInit:00000000 HAL_TIM_MspPostInit
C:\Users\neko2\AppData\Local\Temp\ccI6SjKH.s:457    .text.HAL_TIM_MspPostInit:000000b0 $d
C:\Users\neko2\AppData\Local\Temp\ccI6SjKH.s:465    .text.MX_TIM1_Init:00000000 $t
C:\Users\neko2\AppData\Local\Temp\ccI6SjKH.s:471    .text.MX_TIM1_Init:00000000 MX_TIM1_Init
C:\Users\neko2\AppData\Local\Temp\ccI6SjKH.s:686    .text.MX_TIM1_Init:000000d8 $d
C:\Users\neko2\AppData\Local\Temp\ccI6SjKH.s:692    .text.MX_TIM2_Init:00000000 $t
C:\Users\neko2\AppData\Local\Temp\ccI6SjKH.s:698    .text.MX_TIM2_Init:00000000 MX_TIM2_Init
C:\Users\neko2\AppData\Local\Temp\ccI6SjKH.s:839    .text.MX_TIM2_Init:00000090 $d
C:\Users\neko2\AppData\Local\Temp\ccI6SjKH.s:844    .text.HAL_TIM_PWM_MspDeInit:00000000 $t
C:\Users\neko2\AppData\Local\Temp\ccI6SjKH.s:850    .text.HAL_TIM_PWM_MspDeInit:00000000 HAL_TIM_PWM_MspDeInit
C:\Users\neko2\AppData\Local\Temp\ccI6SjKH.s:890    .text.HAL_TIM_PWM_MspDeInit:0000002c $d
C:\Users\neko2\AppData\Local\Temp\ccI6SjKH.s:896    .text.HAL_TIM_Base_MspDeInit:00000000 $t
C:\Users\neko2\AppData\Local\Temp\ccI6SjKH.s:902    .text.HAL_TIM_Base_MspDeInit:00000000 HAL_TIM_Base_MspDeInit
C:\Users\neko2\AppData\Local\Temp\ccI6SjKH.s:944    .text.HAL_TIM_Base_MspDeInit:00000020 $d
C:\Users\neko2\AppData\Local\Temp\ccI6SjKH.s:971    .bss.htim6:00000000 htim6
C:\Users\neko2\AppData\Local\Temp\ccI6SjKH.s:964    .bss.htim2:00000000 htim2
C:\Users\neko2\AppData\Local\Temp\ccI6SjKH.s:957    .bss.htim1:00000000 htim1
C:\Users\neko2\AppData\Local\Temp\ccI6SjKH.s:953    .bss.htim1:00000000 $d
C:\Users\neko2\AppData\Local\Temp\ccI6SjKH.s:960    .bss.htim2:00000000 $d
C:\Users\neko2\AppData\Local\Temp\ccI6SjKH.s:967    .bss.htim6:00000000 $d

UNDEFINED SYMBOLS
HAL_TIM_Base_Init
HAL_TIMEx_MasterConfigSynchronization
Error_Handler
HAL_NVIC_SetPriority
HAL_NVIC_EnableIRQ
HAL_GPIO_Init
memset
HAL_TIM_PWM_Init
HAL_TIM_PWM_ConfigChannel
HAL_TIMEx_ConfigBreakDeadTime
HAL_NVIC_DisableIRQ
