ARM GAS  C:\Users\neko2\AppData\Local\Temp\cc5Ulkww.s 			page 1


   1              		.cpu cortex-m4
   2              		.arch armv7e-m
   3              		.fpu fpv4-sp-d16
   4              		.eabi_attribute 27, 1
   5              		.eabi_attribute 28, 1
   6              		.eabi_attribute 20, 1
   7              		.eabi_attribute 21, 1
   8              		.eabi_attribute 23, 3
   9              		.eabi_attribute 24, 1
  10              		.eabi_attribute 25, 1
  11              		.eabi_attribute 26, 1
  12              		.eabi_attribute 30, 1
  13              		.eabi_attribute 34, 1
  14              		.eabi_attribute 18, 4
  15              		.file	"usart.c"
  16              		.text
  17              	.Ltext0:
  18              		.cfi_sections	.debug_frame
  19              		.section	.text.MX_USART6_UART_Init,"ax",%progbits
  20              		.align	1
  21              		.global	MX_USART6_UART_Init
  22              		.syntax unified
  23              		.thumb
  24              		.thumb_func
  26              	MX_USART6_UART_Init:
  27              	.LFB252:
  28              		.file 1 "Core/Src/usart.c"
   1:Core/Src/usart.c **** /* USER CODE BEGIN Header */
   2:Core/Src/usart.c **** /**
   3:Core/Src/usart.c ****   ******************************************************************************
   4:Core/Src/usart.c ****   * @file    usart.c
   5:Core/Src/usart.c ****   * @brief   This file provides code for the configuration
   6:Core/Src/usart.c ****   *          of the USART instances.
   7:Core/Src/usart.c ****   ******************************************************************************
   8:Core/Src/usart.c ****   * @attention
   9:Core/Src/usart.c ****   *
  10:Core/Src/usart.c ****   * Copyright (c) 2022 STMicroelectronics.
  11:Core/Src/usart.c ****   * All rights reserved.
  12:Core/Src/usart.c ****   *
  13:Core/Src/usart.c ****   * This software is licensed under terms that can be found in the LICENSE file
  14:Core/Src/usart.c ****   * in the root directory of this software component.
  15:Core/Src/usart.c ****   * If no LICENSE file comes with this software, it is provided AS-IS.
  16:Core/Src/usart.c ****   *
  17:Core/Src/usart.c ****   ******************************************************************************
  18:Core/Src/usart.c ****   */
  19:Core/Src/usart.c **** /* USER CODE END Header */
  20:Core/Src/usart.c **** /* Includes ------------------------------------------------------------------*/
  21:Core/Src/usart.c **** #include "usart.h"
  22:Core/Src/usart.c **** 
  23:Core/Src/usart.c **** /* USER CODE BEGIN 0 */
  24:Core/Src/usart.c **** 
  25:Core/Src/usart.c **** /* USER CODE END 0 */
  26:Core/Src/usart.c **** 
  27:Core/Src/usart.c **** UART_HandleTypeDef huart6;
  28:Core/Src/usart.c **** 
  29:Core/Src/usart.c **** /* USART6 init function */
  30:Core/Src/usart.c **** 
ARM GAS  C:\Users\neko2\AppData\Local\Temp\cc5Ulkww.s 			page 2


  31:Core/Src/usart.c **** void MX_USART6_UART_Init(void)
  32:Core/Src/usart.c **** {
  29              		.loc 1 32 1 view -0
  30              		.cfi_startproc
  31              		@ args = 0, pretend = 0, frame = 0
  32              		@ frame_needed = 0, uses_anonymous_args = 0
  33 0000 08B5     		push	{r3, lr}
  34              	.LCFI0:
  35              		.cfi_def_cfa_offset 8
  36              		.cfi_offset 3, -8
  37              		.cfi_offset 14, -4
  33:Core/Src/usart.c **** 
  34:Core/Src/usart.c ****   /* USER CODE BEGIN USART6_Init 0 */
  35:Core/Src/usart.c **** 
  36:Core/Src/usart.c ****   /* USER CODE END USART6_Init 0 */
  37:Core/Src/usart.c **** 
  38:Core/Src/usart.c ****   /* USER CODE BEGIN USART6_Init 1 */
  39:Core/Src/usart.c **** 
  40:Core/Src/usart.c ****   /* USER CODE END USART6_Init 1 */
  41:Core/Src/usart.c ****   huart6.Instance = USART6;
  38              		.loc 1 41 3 view .LVU1
  39              		.loc 1 41 19 is_stmt 0 view .LVU2
  40 0002 0A48     		ldr	r0, .L5
  41 0004 0A4B     		ldr	r3, .L5+4
  42 0006 0360     		str	r3, [r0]
  42:Core/Src/usart.c ****   huart6.Init.BaudRate = 115200;
  43              		.loc 1 42 3 is_stmt 1 view .LVU3
  44              		.loc 1 42 24 is_stmt 0 view .LVU4
  45 0008 4FF4E133 		mov	r3, #115200
  46 000c 4360     		str	r3, [r0, #4]
  43:Core/Src/usart.c ****   huart6.Init.WordLength = UART_WORDLENGTH_8B;
  47              		.loc 1 43 3 is_stmt 1 view .LVU5
  48              		.loc 1 43 26 is_stmt 0 view .LVU6
  49 000e 0023     		movs	r3, #0
  50 0010 8360     		str	r3, [r0, #8]
  44:Core/Src/usart.c ****   huart6.Init.StopBits = UART_STOPBITS_1;
  51              		.loc 1 44 3 is_stmt 1 view .LVU7
  52              		.loc 1 44 24 is_stmt 0 view .LVU8
  53 0012 C360     		str	r3, [r0, #12]
  45:Core/Src/usart.c ****   huart6.Init.Parity = UART_PARITY_NONE;
  54              		.loc 1 45 3 is_stmt 1 view .LVU9
  55              		.loc 1 45 22 is_stmt 0 view .LVU10
  56 0014 0361     		str	r3, [r0, #16]
  46:Core/Src/usart.c ****   huart6.Init.Mode = UART_MODE_TX_RX;
  57              		.loc 1 46 3 is_stmt 1 view .LVU11
  58              		.loc 1 46 20 is_stmt 0 view .LVU12
  59 0016 0C22     		movs	r2, #12
  60 0018 4261     		str	r2, [r0, #20]
  47:Core/Src/usart.c ****   huart6.Init.HwFlowCtl = UART_HWCONTROL_NONE;
  61              		.loc 1 47 3 is_stmt 1 view .LVU13
  62              		.loc 1 47 25 is_stmt 0 view .LVU14
  63 001a 8361     		str	r3, [r0, #24]
  48:Core/Src/usart.c ****   huart6.Init.OverSampling = UART_OVERSAMPLING_16;
  64              		.loc 1 48 3 is_stmt 1 view .LVU15
  65              		.loc 1 48 28 is_stmt 0 view .LVU16
  66 001c C361     		str	r3, [r0, #28]
  49:Core/Src/usart.c ****   if (HAL_UART_Init(&huart6) != HAL_OK)
ARM GAS  C:\Users\neko2\AppData\Local\Temp\cc5Ulkww.s 			page 3


  67              		.loc 1 49 3 is_stmt 1 view .LVU17
  68              		.loc 1 49 7 is_stmt 0 view .LVU18
  69 001e FFF7FEFF 		bl	HAL_UART_Init
  70              	.LVL0:
  71              		.loc 1 49 6 view .LVU19
  72 0022 00B9     		cbnz	r0, .L4
  73              	.L1:
  50:Core/Src/usart.c ****   {
  51:Core/Src/usart.c ****     Error_Handler();
  52:Core/Src/usart.c ****   }
  53:Core/Src/usart.c ****   /* USER CODE BEGIN USART6_Init 2 */
  54:Core/Src/usart.c **** 
  55:Core/Src/usart.c ****   /* USER CODE END USART6_Init 2 */
  56:Core/Src/usart.c **** 
  57:Core/Src/usart.c **** }
  74              		.loc 1 57 1 view .LVU20
  75 0024 08BD     		pop	{r3, pc}
  76              	.L4:
  51:Core/Src/usart.c ****   }
  77              		.loc 1 51 5 is_stmt 1 view .LVU21
  78 0026 FFF7FEFF 		bl	Error_Handler
  79              	.LVL1:
  80              		.loc 1 57 1 is_stmt 0 view .LVU22
  81 002a FBE7     		b	.L1
  82              	.L6:
  83              		.align	2
  84              	.L5:
  85 002c 00000000 		.word	.LANCHOR0
  86 0030 00140140 		.word	1073812480
  87              		.cfi_endproc
  88              	.LFE252:
  90              		.section	.text.HAL_UART_MspInit,"ax",%progbits
  91              		.align	1
  92              		.global	HAL_UART_MspInit
  93              		.syntax unified
  94              		.thumb
  95              		.thumb_func
  97              	HAL_UART_MspInit:
  98              	.LVL2:
  99              	.LFB253:
  58:Core/Src/usart.c **** 
  59:Core/Src/usart.c **** void HAL_UART_MspInit(UART_HandleTypeDef* uartHandle)
  60:Core/Src/usart.c **** {
 100              		.loc 1 60 1 is_stmt 1 view -0
 101              		.cfi_startproc
 102              		@ args = 0, pretend = 0, frame = 32
 103              		@ frame_needed = 0, uses_anonymous_args = 0
 104              		.loc 1 60 1 is_stmt 0 view .LVU24
 105 0000 00B5     		push	{lr}
 106              	.LCFI1:
 107              		.cfi_def_cfa_offset 4
 108              		.cfi_offset 14, -4
 109 0002 89B0     		sub	sp, sp, #36
 110              	.LCFI2:
 111              		.cfi_def_cfa_offset 40
  61:Core/Src/usart.c **** 
  62:Core/Src/usart.c ****   GPIO_InitTypeDef GPIO_InitStruct = {0};
ARM GAS  C:\Users\neko2\AppData\Local\Temp\cc5Ulkww.s 			page 4


 112              		.loc 1 62 3 is_stmt 1 view .LVU25
 113              		.loc 1 62 20 is_stmt 0 view .LVU26
 114 0004 0023     		movs	r3, #0
 115 0006 0393     		str	r3, [sp, #12]
 116 0008 0493     		str	r3, [sp, #16]
 117 000a 0593     		str	r3, [sp, #20]
 118 000c 0693     		str	r3, [sp, #24]
 119 000e 0793     		str	r3, [sp, #28]
  63:Core/Src/usart.c ****   if(uartHandle->Instance==USART6)
 120              		.loc 1 63 3 is_stmt 1 view .LVU27
 121              		.loc 1 63 16 is_stmt 0 view .LVU28
 122 0010 0268     		ldr	r2, [r0]
 123              		.loc 1 63 5 view .LVU29
 124 0012 154B     		ldr	r3, .L11
 125 0014 9A42     		cmp	r2, r3
 126 0016 02D0     		beq	.L10
 127              	.LVL3:
 128              	.L7:
  64:Core/Src/usart.c ****   {
  65:Core/Src/usart.c ****   /* USER CODE BEGIN USART6_MspInit 0 */
  66:Core/Src/usart.c **** 
  67:Core/Src/usart.c ****   /* USER CODE END USART6_MspInit 0 */
  68:Core/Src/usart.c ****     /* USART6 clock enable */
  69:Core/Src/usart.c ****     __HAL_RCC_USART6_CLK_ENABLE();
  70:Core/Src/usart.c **** 
  71:Core/Src/usart.c ****     __HAL_RCC_GPIOA_CLK_ENABLE();
  72:Core/Src/usart.c ****     /**USART6 GPIO Configuration
  73:Core/Src/usart.c ****     PA11     ------> USART6_TX
  74:Core/Src/usart.c ****     PA12     ------> USART6_RX
  75:Core/Src/usart.c ****     */
  76:Core/Src/usart.c ****     GPIO_InitStruct.Pin = UART_TX_Pin|UART_RX_Pin;
  77:Core/Src/usart.c ****     GPIO_InitStruct.Mode = GPIO_MODE_AF_PP;
  78:Core/Src/usart.c ****     GPIO_InitStruct.Pull = GPIO_NOPULL;
  79:Core/Src/usart.c ****     GPIO_InitStruct.Speed = GPIO_SPEED_FREQ_VERY_HIGH;
  80:Core/Src/usart.c ****     GPIO_InitStruct.Alternate = GPIO_AF8_USART6;
  81:Core/Src/usart.c ****     HAL_GPIO_Init(GPIOA, &GPIO_InitStruct);
  82:Core/Src/usart.c **** 
  83:Core/Src/usart.c ****   /* USER CODE BEGIN USART6_MspInit 1 */
  84:Core/Src/usart.c **** 
  85:Core/Src/usart.c ****   /* USER CODE END USART6_MspInit 1 */
  86:Core/Src/usart.c ****   }
  87:Core/Src/usart.c **** }
 129              		.loc 1 87 1 view .LVU30
 130 0018 09B0     		add	sp, sp, #36
 131              	.LCFI3:
 132              		.cfi_remember_state
 133              		.cfi_def_cfa_offset 4
 134              		@ sp needed
 135 001a 5DF804FB 		ldr	pc, [sp], #4
 136              	.LVL4:
 137              	.L10:
 138              	.LCFI4:
 139              		.cfi_restore_state
  69:Core/Src/usart.c **** 
 140              		.loc 1 69 5 is_stmt 1 view .LVU31
 141              	.LBB2:
  69:Core/Src/usart.c **** 
ARM GAS  C:\Users\neko2\AppData\Local\Temp\cc5Ulkww.s 			page 5


 142              		.loc 1 69 5 view .LVU32
 143 001e 0021     		movs	r1, #0
 144 0020 0191     		str	r1, [sp, #4]
  69:Core/Src/usart.c **** 
 145              		.loc 1 69 5 view .LVU33
 146 0022 03F59233 		add	r3, r3, #74752
 147 0026 5A6C     		ldr	r2, [r3, #68]
 148 0028 42F02002 		orr	r2, r2, #32
 149 002c 5A64     		str	r2, [r3, #68]
  69:Core/Src/usart.c **** 
 150              		.loc 1 69 5 view .LVU34
 151 002e 5A6C     		ldr	r2, [r3, #68]
 152 0030 02F02002 		and	r2, r2, #32
 153 0034 0192     		str	r2, [sp, #4]
  69:Core/Src/usart.c **** 
 154              		.loc 1 69 5 view .LVU35
 155 0036 019A     		ldr	r2, [sp, #4]
 156              	.LBE2:
  69:Core/Src/usart.c **** 
 157              		.loc 1 69 5 view .LVU36
  71:Core/Src/usart.c ****     /**USART6 GPIO Configuration
 158              		.loc 1 71 5 view .LVU37
 159              	.LBB3:
  71:Core/Src/usart.c ****     /**USART6 GPIO Configuration
 160              		.loc 1 71 5 view .LVU38
 161 0038 0291     		str	r1, [sp, #8]
  71:Core/Src/usart.c ****     /**USART6 GPIO Configuration
 162              		.loc 1 71 5 view .LVU39
 163 003a 1A6B     		ldr	r2, [r3, #48]
 164 003c 42F00102 		orr	r2, r2, #1
 165 0040 1A63     		str	r2, [r3, #48]
  71:Core/Src/usart.c ****     /**USART6 GPIO Configuration
 166              		.loc 1 71 5 view .LVU40
 167 0042 1B6B     		ldr	r3, [r3, #48]
 168 0044 03F00103 		and	r3, r3, #1
 169 0048 0293     		str	r3, [sp, #8]
  71:Core/Src/usart.c ****     /**USART6 GPIO Configuration
 170              		.loc 1 71 5 view .LVU41
 171 004a 029B     		ldr	r3, [sp, #8]
 172              	.LBE3:
  71:Core/Src/usart.c ****     /**USART6 GPIO Configuration
 173              		.loc 1 71 5 view .LVU42
  76:Core/Src/usart.c ****     GPIO_InitStruct.Mode = GPIO_MODE_AF_PP;
 174              		.loc 1 76 5 view .LVU43
  76:Core/Src/usart.c ****     GPIO_InitStruct.Mode = GPIO_MODE_AF_PP;
 175              		.loc 1 76 25 is_stmt 0 view .LVU44
 176 004c 4FF4C053 		mov	r3, #6144
 177 0050 0393     		str	r3, [sp, #12]
  77:Core/Src/usart.c ****     GPIO_InitStruct.Pull = GPIO_NOPULL;
 178              		.loc 1 77 5 is_stmt 1 view .LVU45
  77:Core/Src/usart.c ****     GPIO_InitStruct.Pull = GPIO_NOPULL;
 179              		.loc 1 77 26 is_stmt 0 view .LVU46
 180 0052 0223     		movs	r3, #2
 181 0054 0493     		str	r3, [sp, #16]
  78:Core/Src/usart.c ****     GPIO_InitStruct.Speed = GPIO_SPEED_FREQ_VERY_HIGH;
 182              		.loc 1 78 5 is_stmt 1 view .LVU47
  79:Core/Src/usart.c ****     GPIO_InitStruct.Alternate = GPIO_AF8_USART6;
ARM GAS  C:\Users\neko2\AppData\Local\Temp\cc5Ulkww.s 			page 6


 183              		.loc 1 79 5 view .LVU48
  79:Core/Src/usart.c ****     GPIO_InitStruct.Alternate = GPIO_AF8_USART6;
 184              		.loc 1 79 27 is_stmt 0 view .LVU49
 185 0056 0323     		movs	r3, #3
 186 0058 0693     		str	r3, [sp, #24]
  80:Core/Src/usart.c ****     HAL_GPIO_Init(GPIOA, &GPIO_InitStruct);
 187              		.loc 1 80 5 is_stmt 1 view .LVU50
  80:Core/Src/usart.c ****     HAL_GPIO_Init(GPIOA, &GPIO_InitStruct);
 188              		.loc 1 80 31 is_stmt 0 view .LVU51
 189 005a 0823     		movs	r3, #8
 190 005c 0793     		str	r3, [sp, #28]
  81:Core/Src/usart.c **** 
 191              		.loc 1 81 5 is_stmt 1 view .LVU52
 192 005e 03A9     		add	r1, sp, #12
 193 0060 0248     		ldr	r0, .L11+4
 194              	.LVL5:
  81:Core/Src/usart.c **** 
 195              		.loc 1 81 5 is_stmt 0 view .LVU53
 196 0062 FFF7FEFF 		bl	HAL_GPIO_Init
 197              	.LVL6:
 198              		.loc 1 87 1 view .LVU54
 199 0066 D7E7     		b	.L7
 200              	.L12:
 201              		.align	2
 202              	.L11:
 203 0068 00140140 		.word	1073812480
 204 006c 00000240 		.word	1073872896
 205              		.cfi_endproc
 206              	.LFE253:
 208              		.section	.text.HAL_UART_MspDeInit,"ax",%progbits
 209              		.align	1
 210              		.global	HAL_UART_MspDeInit
 211              		.syntax unified
 212              		.thumb
 213              		.thumb_func
 215              	HAL_UART_MspDeInit:
 216              	.LVL7:
 217              	.LFB254:
  88:Core/Src/usart.c **** 
  89:Core/Src/usart.c **** void HAL_UART_MspDeInit(UART_HandleTypeDef* uartHandle)
  90:Core/Src/usart.c **** {
 218              		.loc 1 90 1 is_stmt 1 view -0
 219              		.cfi_startproc
 220              		@ args = 0, pretend = 0, frame = 0
 221              		@ frame_needed = 0, uses_anonymous_args = 0
 222              		.loc 1 90 1 is_stmt 0 view .LVU56
 223 0000 08B5     		push	{r3, lr}
 224              	.LCFI5:
 225              		.cfi_def_cfa_offset 8
 226              		.cfi_offset 3, -8
 227              		.cfi_offset 14, -4
  91:Core/Src/usart.c **** 
  92:Core/Src/usart.c ****   if(uartHandle->Instance==USART6)
 228              		.loc 1 92 3 is_stmt 1 view .LVU57
 229              		.loc 1 92 16 is_stmt 0 view .LVU58
 230 0002 0268     		ldr	r2, [r0]
 231              		.loc 1 92 5 view .LVU59
ARM GAS  C:\Users\neko2\AppData\Local\Temp\cc5Ulkww.s 			page 7


 232 0004 074B     		ldr	r3, .L17
 233 0006 9A42     		cmp	r2, r3
 234 0008 00D0     		beq	.L16
 235              	.LVL8:
 236              	.L13:
  93:Core/Src/usart.c ****   {
  94:Core/Src/usart.c ****   /* USER CODE BEGIN USART6_MspDeInit 0 */
  95:Core/Src/usart.c **** 
  96:Core/Src/usart.c ****   /* USER CODE END USART6_MspDeInit 0 */
  97:Core/Src/usart.c ****     /* Peripheral clock disable */
  98:Core/Src/usart.c ****     __HAL_RCC_USART6_CLK_DISABLE();
  99:Core/Src/usart.c **** 
 100:Core/Src/usart.c ****     /**USART6 GPIO Configuration
 101:Core/Src/usart.c ****     PA11     ------> USART6_TX
 102:Core/Src/usart.c ****     PA12     ------> USART6_RX
 103:Core/Src/usart.c ****     */
 104:Core/Src/usart.c ****     HAL_GPIO_DeInit(GPIOA, UART_TX_Pin|UART_RX_Pin);
 105:Core/Src/usart.c **** 
 106:Core/Src/usart.c ****   /* USER CODE BEGIN USART6_MspDeInit 1 */
 107:Core/Src/usart.c **** 
 108:Core/Src/usart.c ****   /* USER CODE END USART6_MspDeInit 1 */
 109:Core/Src/usart.c ****   }
 110:Core/Src/usart.c **** }
 237              		.loc 1 110 1 view .LVU60
 238 000a 08BD     		pop	{r3, pc}
 239              	.LVL9:
 240              	.L16:
  98:Core/Src/usart.c **** 
 241              		.loc 1 98 5 is_stmt 1 view .LVU61
 242 000c 064A     		ldr	r2, .L17+4
 243 000e 536C     		ldr	r3, [r2, #68]
 244 0010 23F02003 		bic	r3, r3, #32
 245 0014 5364     		str	r3, [r2, #68]
 104:Core/Src/usart.c **** 
 246              		.loc 1 104 5 view .LVU62
 247 0016 4FF4C051 		mov	r1, #6144
 248 001a 0448     		ldr	r0, .L17+8
 249              	.LVL10:
 104:Core/Src/usart.c **** 
 250              		.loc 1 104 5 is_stmt 0 view .LVU63
 251 001c FFF7FEFF 		bl	HAL_GPIO_DeInit
 252              	.LVL11:
 253              		.loc 1 110 1 view .LVU64
 254 0020 F3E7     		b	.L13
 255              	.L18:
 256 0022 00BF     		.align	2
 257              	.L17:
 258 0024 00140140 		.word	1073812480
 259 0028 00380240 		.word	1073887232
 260 002c 00000240 		.word	1073872896
 261              		.cfi_endproc
 262              	.LFE254:
 264              		.global	huart6
 265              		.section	.bss.huart6,"aw",%nobits
 266              		.align	2
 267              		.set	.LANCHOR0,. + 0
 270              	huart6:
ARM GAS  C:\Users\neko2\AppData\Local\Temp\cc5Ulkww.s 			page 8


 271 0000 00000000 		.space	68
 271      00000000 
 271      00000000 
 271      00000000 
 271      00000000 
 272              		.text
 273              	.Letext0:
 274              		.file 2 "c:\\tools\\gcc-arm-none-eabi-10.3-2021.10\\arm-none-eabi\\include\\machine\\_default_type
 275              		.file 3 "c:\\tools\\gcc-arm-none-eabi-10.3-2021.10\\arm-none-eabi\\include\\sys\\_stdint.h"
 276              		.file 4 "Drivers/CMSIS/Device/ST/STM32F4xx/Include/stm32f412cx.h"
 277              		.file 5 "Drivers/STM32F4xx_HAL_Driver/Inc/stm32f4xx_hal_def.h"
 278              		.file 6 "Drivers/STM32F4xx_HAL_Driver/Inc/stm32f4xx_hal_gpio.h"
 279              		.file 7 "Drivers/STM32F4xx_HAL_Driver/Inc/stm32f4xx_hal_dma.h"
 280              		.file 8 "Drivers/STM32F4xx_HAL_Driver/Inc/stm32f4xx_hal_uart.h"
 281              		.file 9 "Core/Inc/main.h"
 282              		.file 10 "Core/Inc/usart.h"
ARM GAS  C:\Users\neko2\AppData\Local\Temp\cc5Ulkww.s 			page 9

